In archive exe/libdriver.a:

adc.o:     file format elf32-littlearm


Disassembly of section .text.ADCEnable:

00000000 <ADCEnable>:
   0:	b480      	push	{r7}
   2:	b083      	sub	sp, #12
   4:	af00      	add	r7, sp, #0
   6:	6078      	str	r0, [r7, #4]
   8:	687b      	ldr	r3, [r7, #4]
   a:	687a      	ldr	r2, [r7, #4]
   c:	6812      	ldr	r2, [r2, #0]
   e:	f042 0201 	orr.w	r2, r2, #1
  12:	601a      	str	r2, [r3, #0]
  14:	370c      	adds	r7, #12
  16:	46bd      	mov	sp, r7
  18:	f85d 7b04 	ldr.w	r7, [sp], #4
  1c:	4770      	bx	lr
  1e:	bf00      	nop

Disassembly of section .text.ADCDisable:

00000000 <ADCDisable>:
   0:	b480      	push	{r7}
   2:	b083      	sub	sp, #12
   4:	af00      	add	r7, sp, #0
   6:	6078      	str	r0, [r7, #4]
   8:	687b      	ldr	r3, [r7, #4]
   a:	687a      	ldr	r2, [r7, #4]
   c:	6812      	ldr	r2, [r2, #0]
   e:	f022 0201 	bic.w	r2, r2, #1
  12:	601a      	str	r2, [r3, #0]
  14:	370c      	adds	r7, #12
  16:	46bd      	mov	sp, r7
  18:	f85d 7b04 	ldr.w	r7, [sp], #4
  1c:	4770      	bx	lr
  1e:	bf00      	nop

Disassembly of section .text.ADCChannelEnable:

00000000 <ADCChannelEnable>:
   0:	b480      	push	{r7}
   2:	b085      	sub	sp, #20
   4:	af00      	add	r7, sp, #0
   6:	6078      	str	r0, [r7, #4]
   8:	6039      	str	r1, [r7, #0]
   a:	683b      	ldr	r3, [r7, #0]
   c:	2b00      	cmp	r3, #0
   e:	d00b      	beq.n	28 <ADCChannelEnable+0x28>
  10:	683b      	ldr	r3, [r7, #0]
  12:	2b08      	cmp	r3, #8
  14:	d006      	beq.n	24 <ADCChannelEnable+0x24>
  16:	683b      	ldr	r3, [r7, #0]
  18:	2b10      	cmp	r3, #16
  1a:	d101      	bne.n	20 <ADCChannelEnable+0x20>
  1c:	2308      	movs	r3, #8
  1e:	e004      	b.n	2a <ADCChannelEnable+0x2a>
  20:	2310      	movs	r3, #16
  22:	e002      	b.n	2a <ADCChannelEnable+0x2a>
  24:	2304      	movs	r3, #4
  26:	e000      	b.n	2a <ADCChannelEnable+0x2a>
  28:	2302      	movs	r3, #2
  2a:	60fb      	str	r3, [r7, #12]
  2c:	687b      	ldr	r3, [r7, #4]
  2e:	33b8      	adds	r3, #184	; 0xb8
  30:	687a      	ldr	r2, [r7, #4]
  32:	32b8      	adds	r2, #184	; 0xb8
  34:	6811      	ldr	r1, [r2, #0]
  36:	68fa      	ldr	r2, [r7, #12]
  38:	430a      	orrs	r2, r1
  3a:	601a      	str	r2, [r3, #0]
  3c:	3714      	adds	r7, #20
  3e:	46bd      	mov	sp, r7
  40:	f85d 7b04 	ldr.w	r7, [sp], #4
  44:	4770      	bx	lr
  46:	bf00      	nop

Disassembly of section .text.ADCChannelDisable:

00000000 <ADCChannelDisable>:
   0:	b480      	push	{r7}
   2:	b085      	sub	sp, #20
   4:	af00      	add	r7, sp, #0
   6:	6078      	str	r0, [r7, #4]
   8:	6039      	str	r1, [r7, #0]
   a:	683b      	ldr	r3, [r7, #0]
   c:	2b00      	cmp	r3, #0
   e:	d00b      	beq.n	28 <ADCChannelDisable+0x28>
  10:	683b      	ldr	r3, [r7, #0]
  12:	2b08      	cmp	r3, #8
  14:	d006      	beq.n	24 <ADCChannelDisable+0x24>
  16:	683b      	ldr	r3, [r7, #0]
  18:	2b10      	cmp	r3, #16
  1a:	d101      	bne.n	20 <ADCChannelDisable+0x20>
  1c:	2308      	movs	r3, #8
  1e:	e004      	b.n	2a <ADCChannelDisable+0x2a>
  20:	2310      	movs	r3, #16
  22:	e002      	b.n	2a <ADCChannelDisable+0x2a>
  24:	2304      	movs	r3, #4
  26:	e000      	b.n	2a <ADCChannelDisable+0x2a>
  28:	2302      	movs	r3, #2
  2a:	60fb      	str	r3, [r7, #12]
  2c:	687b      	ldr	r3, [r7, #4]
  2e:	33b8      	adds	r3, #184	; 0xb8
  30:	687a      	ldr	r2, [r7, #4]
  32:	32b8      	adds	r2, #184	; 0xb8
  34:	6811      	ldr	r1, [r2, #0]
  36:	68fa      	ldr	r2, [r7, #12]
  38:	43d2      	mvns	r2, r2
  3a:	400a      	ands	r2, r1
  3c:	601a      	str	r2, [r3, #0]
  3e:	3714      	adds	r7, #20
  40:	46bd      	mov	sp, r7
  42:	f85d 7b04 	ldr.w	r7, [sp], #4
  46:	4770      	bx	lr

Disassembly of section .text.ADCIntRegister:

00000000 <ADCIntRegister>:
   0:	b580      	push	{r7, lr}
   2:	b086      	sub	sp, #24
   4:	af00      	add	r7, sp, #0
   6:	60f8      	str	r0, [r7, #12]
   8:	60b9      	str	r1, [r7, #8]
   a:	607a      	str	r2, [r7, #4]
   c:	68bb      	ldr	r3, [r7, #8]
   e:	2b00      	cmp	r3, #0
  10:	d00b      	beq.n	2a <ADCIntRegister+0x2a>
  12:	68bb      	ldr	r3, [r7, #8]
  14:	2b08      	cmp	r3, #8
  16:	d006      	beq.n	26 <ADCIntRegister+0x26>
  18:	68bb      	ldr	r3, [r7, #8]
  1a:	2b10      	cmp	r3, #16
  1c:	d101      	bne.n	22 <ADCIntRegister+0x22>
  1e:	2320      	movs	r3, #32
  20:	e004      	b.n	2c <ADCIntRegister+0x2c>
  22:	2321      	movs	r3, #33	; 0x21
  24:	e002      	b.n	2c <ADCIntRegister+0x2c>
  26:	231f      	movs	r3, #31
  28:	e000      	b.n	2c <ADCIntRegister+0x2c>
  2a:	231e      	movs	r3, #30
  2c:	617b      	str	r3, [r7, #20]
  2e:	6978      	ldr	r0, [r7, #20]
  30:	6879      	ldr	r1, [r7, #4]
  32:	f7ff fffe 	bl	0 <IntRegister>
  36:	6978      	ldr	r0, [r7, #20]
  38:	f7ff fffe 	bl	0 <IntEnable>
  3c:	3718      	adds	r7, #24
  3e:	46bd      	mov	sp, r7
  40:	bd80      	pop	{r7, pc}
  42:	bf00      	nop

Disassembly of section .text.ADCIntUnregister:

00000000 <ADCIntUnregister>:
   0:	b580      	push	{r7, lr}
   2:	b084      	sub	sp, #16
   4:	af00      	add	r7, sp, #0
   6:	6078      	str	r0, [r7, #4]
   8:	6039      	str	r1, [r7, #0]
   a:	683b      	ldr	r3, [r7, #0]
   c:	2b00      	cmp	r3, #0
   e:	d00b      	beq.n	28 <ADCIntUnregister+0x28>
  10:	683b      	ldr	r3, [r7, #0]
  12:	2b08      	cmp	r3, #8
  14:	d006      	beq.n	24 <ADCIntUnregister+0x24>
  16:	683b      	ldr	r3, [r7, #0]
  18:	2b10      	cmp	r3, #16
  1a:	d101      	bne.n	20 <ADCIntUnregister+0x20>
  1c:	2320      	movs	r3, #32
  1e:	e004      	b.n	2a <ADCIntUnregister+0x2a>
  20:	2321      	movs	r3, #33	; 0x21
  22:	e002      	b.n	2a <ADCIntUnregister+0x2a>
  24:	231f      	movs	r3, #31
  26:	e000      	b.n	2a <ADCIntUnregister+0x2a>
  28:	231e      	movs	r3, #30
  2a:	60fb      	str	r3, [r7, #12]
  2c:	68f8      	ldr	r0, [r7, #12]
  2e:	f7ff fffe 	bl	0 <IntDisable>
  32:	68f8      	ldr	r0, [r7, #12]
  34:	f7ff fffe 	bl	0 <IntUnregister>
  38:	3710      	adds	r7, #16
  3a:	46bd      	mov	sp, r7
  3c:	bd80      	pop	{r7, pc}
  3e:	bf00      	nop

Disassembly of section .text.ADCIntEnable:

00000000 <ADCIntEnable>:
   0:	b480      	push	{r7}
   2:	b087      	sub	sp, #28
   4:	af00      	add	r7, sp, #0
   6:	60f8      	str	r0, [r7, #12]
   8:	60b9      	str	r1, [r7, #8]
   a:	607a      	str	r2, [r7, #4]
   c:	687b      	ldr	r3, [r7, #4]
   e:	f003 0310 	and.w	r3, r3, #16
  12:	2b00      	cmp	r3, #0
  14:	d01a      	beq.n	4c <ADCIntEnable+0x4c>
  16:	68bb      	ldr	r3, [r7, #8]
  18:	2b00      	cmp	r3, #0
  1a:	d00e      	beq.n	3a <ADCIntEnable+0x3a>
  1c:	68bb      	ldr	r3, [r7, #8]
  1e:	2b08      	cmp	r3, #8
  20:	d008      	beq.n	34 <ADCIntEnable+0x34>
  22:	68bb      	ldr	r3, [r7, #8]
  24:	2b10      	cmp	r3, #16
  26:	d102      	bne.n	2e <ADCIntEnable+0x2e>
  28:	f44f 4380 	mov.w	r3, #16384	; 0x4000
  2c:	e007      	b.n	3e <ADCIntEnable+0x3e>
  2e:	f44f 4300 	mov.w	r3, #32768	; 0x8000
  32:	e004      	b.n	3e <ADCIntEnable+0x3e>
  34:	f44f 5300 	mov.w	r3, #8192	; 0x2000
  38:	e001      	b.n	3e <ADCIntEnable+0x3e>
  3a:	f44f 5380 	mov.w	r3, #4096	; 0x1000
  3e:	617b      	str	r3, [r7, #20]
  40:	f246 0394 	movw	r3, #24724	; 0x6094
  44:	f2c4 4302 	movt	r3, #17410	; 0x4402
  48:	697a      	ldr	r2, [r7, #20]
  4a:	601a      	str	r2, [r3, #0]
  4c:	687b      	ldr	r3, [r7, #4]
  4e:	f003 030f 	and.w	r3, r3, #15
  52:	607b      	str	r3, [r7, #4]
  54:	68bb      	ldr	r3, [r7, #8]
  56:	3324      	adds	r3, #36	; 0x24
  58:	613b      	str	r3, [r7, #16]
  5a:	68fa      	ldr	r2, [r7, #12]
  5c:	693b      	ldr	r3, [r7, #16]
  5e:	4413      	add	r3, r2
  60:	68f9      	ldr	r1, [r7, #12]
  62:	693a      	ldr	r2, [r7, #16]
  64:	440a      	add	r2, r1
  66:	6811      	ldr	r1, [r2, #0]
  68:	687a      	ldr	r2, [r7, #4]
  6a:	f002 020f 	and.w	r2, r2, #15
  6e:	430a      	orrs	r2, r1
  70:	601a      	str	r2, [r3, #0]
  72:	371c      	adds	r7, #28
  74:	46bd      	mov	sp, r7
  76:	f85d 7b04 	ldr.w	r7, [sp], #4
  7a:	4770      	bx	lr

Disassembly of section .text.ADCIntDisable:

00000000 <ADCIntDisable>:
   0:	b480      	push	{r7}
   2:	b087      	sub	sp, #28
   4:	af00      	add	r7, sp, #0
   6:	60f8      	str	r0, [r7, #12]
   8:	60b9      	str	r1, [r7, #8]
   a:	607a      	str	r2, [r7, #4]
   c:	687b      	ldr	r3, [r7, #4]
   e:	f003 0310 	and.w	r3, r3, #16
  12:	2b00      	cmp	r3, #0
  14:	d01a      	beq.n	4c <ADCIntDisable+0x4c>
  16:	68bb      	ldr	r3, [r7, #8]
  18:	2b00      	cmp	r3, #0
  1a:	d00e      	beq.n	3a <ADCIntDisable+0x3a>
  1c:	68bb      	ldr	r3, [r7, #8]
  1e:	2b08      	cmp	r3, #8
  20:	d008      	beq.n	34 <ADCIntDisable+0x34>
  22:	68bb      	ldr	r3, [r7, #8]
  24:	2b10      	cmp	r3, #16
  26:	d102      	bne.n	2e <ADCIntDisable+0x2e>
  28:	f44f 4380 	mov.w	r3, #16384	; 0x4000
  2c:	e007      	b.n	3e <ADCIntDisable+0x3e>
  2e:	f44f 4300 	mov.w	r3, #32768	; 0x8000
  32:	e004      	b.n	3e <ADCIntDisable+0x3e>
  34:	f44f 5300 	mov.w	r3, #8192	; 0x2000
  38:	e001      	b.n	3e <ADCIntDisable+0x3e>
  3a:	f44f 5380 	mov.w	r3, #4096	; 0x1000
  3e:	617b      	str	r3, [r7, #20]
  40:	f246 0390 	movw	r3, #24720	; 0x6090
  44:	f2c4 4302 	movt	r3, #17410	; 0x4402
  48:	697a      	ldr	r2, [r7, #20]
  4a:	601a      	str	r2, [r3, #0]
  4c:	68bb      	ldr	r3, [r7, #8]
  4e:	3324      	adds	r3, #36	; 0x24
  50:	613b      	str	r3, [r7, #16]
  52:	68fa      	ldr	r2, [r7, #12]
  54:	693b      	ldr	r3, [r7, #16]
  56:	4413      	add	r3, r2
  58:	68f9      	ldr	r1, [r7, #12]
  5a:	693a      	ldr	r2, [r7, #16]
  5c:	440a      	add	r2, r1
  5e:	6811      	ldr	r1, [r2, #0]
  60:	687a      	ldr	r2, [r7, #4]
  62:	43d2      	mvns	r2, r2
  64:	400a      	ands	r2, r1
  66:	601a      	str	r2, [r3, #0]
  68:	371c      	adds	r7, #28
  6a:	46bd      	mov	sp, r7
  6c:	f85d 7b04 	ldr.w	r7, [sp], #4
  70:	4770      	bx	lr
  72:	bf00      	nop

Disassembly of section .text.ADCIntStatus:

00000000 <ADCIntStatus>:
   0:	b480      	push	{r7}
   2:	b087      	sub	sp, #28
   4:	af00      	add	r7, sp, #0
   6:	6078      	str	r0, [r7, #4]
   8:	6039      	str	r1, [r7, #0]
   a:	683b      	ldr	r3, [r7, #0]
   c:	2b00      	cmp	r3, #0
   e:	d00e      	beq.n	2e <ADCIntStatus+0x2e>
  10:	683b      	ldr	r3, [r7, #0]
  12:	2b08      	cmp	r3, #8
  14:	d008      	beq.n	28 <ADCIntStatus+0x28>
  16:	683b      	ldr	r3, [r7, #0]
  18:	2b10      	cmp	r3, #16
  1a:	d102      	bne.n	22 <ADCIntStatus+0x22>
  1c:	f44f 4380 	mov.w	r3, #16384	; 0x4000
  20:	e007      	b.n	32 <ADCIntStatus+0x32>
  22:	f44f 4300 	mov.w	r3, #32768	; 0x8000
  26:	e004      	b.n	32 <ADCIntStatus+0x32>
  28:	f44f 5300 	mov.w	r3, #8192	; 0x2000
  2c:	e001      	b.n	32 <ADCIntStatus+0x32>
  2e:	f44f 5380 	mov.w	r3, #4096	; 0x1000
  32:	617b      	str	r3, [r7, #20]
  34:	f246 03a0 	movw	r3, #24736	; 0x60a0
  38:	f2c4 4302 	movt	r3, #17410	; 0x4402
  3c:	681a      	ldr	r2, [r3, #0]
  3e:	697b      	ldr	r3, [r7, #20]
  40:	4013      	ands	r3, r2
  42:	613b      	str	r3, [r7, #16]
  44:	683b      	ldr	r3, [r7, #0]
  46:	3344      	adds	r3, #68	; 0x44
  48:	60fb      	str	r3, [r7, #12]
  4a:	687a      	ldr	r2, [r7, #4]
  4c:	68fb      	ldr	r3, [r7, #12]
  4e:	4413      	add	r3, r2
  50:	681b      	ldr	r3, [r3, #0]
  52:	f003 030f 	and.w	r3, r3, #15
  56:	693a      	ldr	r2, [r7, #16]
  58:	4313      	orrs	r3, r2
  5a:	613b      	str	r3, [r7, #16]
  5c:	693b      	ldr	r3, [r7, #16]
  5e:	4618      	mov	r0, r3
  60:	371c      	adds	r7, #28
  62:	46bd      	mov	sp, r7
  64:	f85d 7b04 	ldr.w	r7, [sp], #4
  68:	4770      	bx	lr
  6a:	bf00      	nop

Disassembly of section .text.ADCIntClear:

00000000 <ADCIntClear>:
   0:	b480      	push	{r7}
   2:	b087      	sub	sp, #28
   4:	af00      	add	r7, sp, #0
   6:	60f8      	str	r0, [r7, #12]
   8:	60b9      	str	r1, [r7, #8]
   a:	607a      	str	r2, [r7, #4]
   c:	687b      	ldr	r3, [r7, #4]
   e:	f003 0310 	and.w	r3, r3, #16
  12:	2b00      	cmp	r3, #0
  14:	d01a      	beq.n	4c <ADCIntClear+0x4c>
  16:	68bb      	ldr	r3, [r7, #8]
  18:	2b00      	cmp	r3, #0
  1a:	d00e      	beq.n	3a <ADCIntClear+0x3a>
  1c:	68bb      	ldr	r3, [r7, #8]
  1e:	2b08      	cmp	r3, #8
  20:	d008      	beq.n	34 <ADCIntClear+0x34>
  22:	68bb      	ldr	r3, [r7, #8]
  24:	2b10      	cmp	r3, #16
  26:	d102      	bne.n	2e <ADCIntClear+0x2e>
  28:	f44f 4380 	mov.w	r3, #16384	; 0x4000
  2c:	e007      	b.n	3e <ADCIntClear+0x3e>
  2e:	f44f 4300 	mov.w	r3, #32768	; 0x8000
  32:	e004      	b.n	3e <ADCIntClear+0x3e>
  34:	f44f 5300 	mov.w	r3, #8192	; 0x2000
  38:	e001      	b.n	3e <ADCIntClear+0x3e>
  3a:	f44f 5380 	mov.w	r3, #4096	; 0x1000
  3e:	617b      	str	r3, [r7, #20]
  40:	f246 039c 	movw	r3, #24732	; 0x609c
  44:	f2c4 4302 	movt	r3, #17410	; 0x4402
  48:	697a      	ldr	r2, [r7, #20]
  4a:	601a      	str	r2, [r3, #0]
  4c:	68bb      	ldr	r3, [r7, #8]
  4e:	3344      	adds	r3, #68	; 0x44
  50:	613b      	str	r3, [r7, #16]
  52:	68fa      	ldr	r2, [r7, #12]
  54:	693b      	ldr	r3, [r7, #16]
  56:	4413      	add	r3, r2
  58:	687a      	ldr	r2, [r7, #4]
  5a:	f022 0210 	bic.w	r2, r2, #16
  5e:	601a      	str	r2, [r3, #0]
  60:	371c      	adds	r7, #28
  62:	46bd      	mov	sp, r7
  64:	f85d 7b04 	ldr.w	r7, [sp], #4
  68:	4770      	bx	lr
  6a:	bf00      	nop

Disassembly of section .text.ADCDMAEnable:

00000000 <ADCDMAEnable>:
   0:	b480      	push	{r7}
   2:	b085      	sub	sp, #20
   4:	af00      	add	r7, sp, #0
   6:	6078      	str	r0, [r7, #4]
   8:	6039      	str	r1, [r7, #0]
   a:	683b      	ldr	r3, [r7, #0]
   c:	2b00      	cmp	r3, #0
   e:	d00b      	beq.n	28 <ADCDMAEnable+0x28>
  10:	683b      	ldr	r3, [r7, #0]
  12:	2b08      	cmp	r3, #8
  14:	d006      	beq.n	24 <ADCDMAEnable+0x24>
  16:	683b      	ldr	r3, [r7, #0]
  18:	2b10      	cmp	r3, #16
  1a:	d101      	bne.n	20 <ADCDMAEnable+0x20>
  1c:	2310      	movs	r3, #16
  1e:	e004      	b.n	2a <ADCDMAEnable+0x2a>
  20:	2340      	movs	r3, #64	; 0x40
  22:	e002      	b.n	2a <ADCDMAEnable+0x2a>
  24:	2304      	movs	r3, #4
  26:	e000      	b.n	2a <ADCDMAEnable+0x2a>
  28:	2301      	movs	r3, #1
  2a:	60fb      	str	r3, [r7, #12]
  2c:	687b      	ldr	r3, [r7, #4]
  2e:	3364      	adds	r3, #100	; 0x64
  30:	687a      	ldr	r2, [r7, #4]
  32:	3264      	adds	r2, #100	; 0x64
  34:	6811      	ldr	r1, [r2, #0]
  36:	68fa      	ldr	r2, [r7, #12]
  38:	430a      	orrs	r2, r1
  3a:	601a      	str	r2, [r3, #0]
  3c:	3714      	adds	r7, #20
  3e:	46bd      	mov	sp, r7
  40:	f85d 7b04 	ldr.w	r7, [sp], #4
  44:	4770      	bx	lr
  46:	bf00      	nop

Disassembly of section .text.ADCDMADisable:

00000000 <ADCDMADisable>:
   0:	b480      	push	{r7}
   2:	b085      	sub	sp, #20
   4:	af00      	add	r7, sp, #0
   6:	6078      	str	r0, [r7, #4]
   8:	6039      	str	r1, [r7, #0]
   a:	683b      	ldr	r3, [r7, #0]
   c:	2b00      	cmp	r3, #0
   e:	d00b      	beq.n	28 <ADCDMADisable+0x28>
  10:	683b      	ldr	r3, [r7, #0]
  12:	2b08      	cmp	r3, #8
  14:	d006      	beq.n	24 <ADCDMADisable+0x24>
  16:	683b      	ldr	r3, [r7, #0]
  18:	2b10      	cmp	r3, #16
  1a:	d101      	bne.n	20 <ADCDMADisable+0x20>
  1c:	2310      	movs	r3, #16
  1e:	e004      	b.n	2a <ADCDMADisable+0x2a>
  20:	2340      	movs	r3, #64	; 0x40
  22:	e002      	b.n	2a <ADCDMADisable+0x2a>
  24:	2304      	movs	r3, #4
  26:	e000      	b.n	2a <ADCDMADisable+0x2a>
  28:	2301      	movs	r3, #1
  2a:	60fb      	str	r3, [r7, #12]
  2c:	687b      	ldr	r3, [r7, #4]
  2e:	3364      	adds	r3, #100	; 0x64
  30:	687a      	ldr	r2, [r7, #4]
  32:	3264      	adds	r2, #100	; 0x64
  34:	6811      	ldr	r1, [r2, #0]
  36:	68fa      	ldr	r2, [r7, #12]
  38:	43d2      	mvns	r2, r2
  3a:	400a      	ands	r2, r1
  3c:	601a      	str	r2, [r3, #0]
  3e:	3714      	adds	r7, #20
  40:	46bd      	mov	sp, r7
  42:	f85d 7b04 	ldr.w	r7, [sp], #4
  46:	4770      	bx	lr

Disassembly of section .text.ADCTimerConfig:

00000000 <ADCTimerConfig>:
   0:	b480      	push	{r7}
   2:	b085      	sub	sp, #20
   4:	af00      	add	r7, sp, #0
   6:	6078      	str	r0, [r7, #4]
   8:	6039      	str	r1, [r7, #0]
   a:	687b      	ldr	r3, [r7, #4]
   c:	3368      	adds	r3, #104	; 0x68
   e:	681b      	ldr	r3, [r3, #0]
  10:	60fb      	str	r3, [r7, #12]
  12:	68fb      	ldr	r3, [r7, #12]
  14:	0c5b      	lsrs	r3, r3, #17
  16:	045b      	lsls	r3, r3, #17
  18:	683a      	ldr	r2, [r7, #0]
  1a:	f3c2 0210 	ubfx	r2, r2, #0, #17
  1e:	4313      	orrs	r3, r2
  20:	60fb      	str	r3, [r7, #12]
  22:	687b      	ldr	r3, [r7, #4]
  24:	3368      	adds	r3, #104	; 0x68
  26:	68fa      	ldr	r2, [r7, #12]
  28:	601a      	str	r2, [r3, #0]
  2a:	3714      	adds	r7, #20
  2c:	46bd      	mov	sp, r7
  2e:	f85d 7b04 	ldr.w	r7, [sp], #4
  32:	4770      	bx	lr

Disassembly of section .text.ADCTimerReset:

00000000 <ADCTimerReset>:
   0:	b480      	push	{r7}
   2:	b083      	sub	sp, #12
   4:	af00      	add	r7, sp, #0
   6:	6078      	str	r0, [r7, #4]
   8:	687b      	ldr	r3, [r7, #4]
   a:	3368      	adds	r3, #104	; 0x68
   c:	687a      	ldr	r2, [r7, #4]
   e:	3268      	adds	r2, #104	; 0x68
  10:	6812      	ldr	r2, [r2, #0]
  12:	f042 7280 	orr.w	r2, r2, #16777216	; 0x1000000
  16:	601a      	str	r2, [r3, #0]
  18:	370c      	adds	r7, #12
  1a:	46bd      	mov	sp, r7
  1c:	f85d 7b04 	ldr.w	r7, [sp], #4
  20:	4770      	bx	lr
  22:	bf00      	nop

Disassembly of section .text.ADCTimerEnable:

00000000 <ADCTimerEnable>:
   0:	b480      	push	{r7}
   2:	b083      	sub	sp, #12
   4:	af00      	add	r7, sp, #0
   6:	6078      	str	r0, [r7, #4]
   8:	687b      	ldr	r3, [r7, #4]
   a:	3368      	adds	r3, #104	; 0x68
   c:	687a      	ldr	r2, [r7, #4]
   e:	3268      	adds	r2, #104	; 0x68
  10:	6812      	ldr	r2, [r2, #0]
  12:	f042 7200 	orr.w	r2, r2, #33554432	; 0x2000000
  16:	601a      	str	r2, [r3, #0]
  18:	370c      	adds	r7, #12
  1a:	46bd      	mov	sp, r7
  1c:	f85d 7b04 	ldr.w	r7, [sp], #4
  20:	4770      	bx	lr
  22:	bf00      	nop

Disassembly of section .text.ADCTimerDisable:

00000000 <ADCTimerDisable>:
   0:	b480      	push	{r7}
   2:	b083      	sub	sp, #12
   4:	af00      	add	r7, sp, #0
   6:	6078      	str	r0, [r7, #4]
   8:	687b      	ldr	r3, [r7, #4]
   a:	3368      	adds	r3, #104	; 0x68
   c:	687a      	ldr	r2, [r7, #4]
   e:	3268      	adds	r2, #104	; 0x68
  10:	6812      	ldr	r2, [r2, #0]
  12:	f022 7200 	bic.w	r2, r2, #33554432	; 0x2000000
  16:	601a      	str	r2, [r3, #0]
  18:	370c      	adds	r7, #12
  1a:	46bd      	mov	sp, r7
  1c:	f85d 7b04 	ldr.w	r7, [sp], #4
  20:	4770      	bx	lr
  22:	bf00      	nop

Disassembly of section .text.ADCTimerValueGet:

00000000 <ADCTimerValueGet>:
   0:	b480      	push	{r7}
   2:	b083      	sub	sp, #12
   4:	af00      	add	r7, sp, #0
   6:	6078      	str	r0, [r7, #4]
   8:	687b      	ldr	r3, [r7, #4]
   a:	3370      	adds	r3, #112	; 0x70
   c:	681b      	ldr	r3, [r3, #0]
   e:	4618      	mov	r0, r3
  10:	370c      	adds	r7, #12
  12:	46bd      	mov	sp, r7
  14:	f85d 7b04 	ldr.w	r7, [sp], #4
  18:	4770      	bx	lr
  1a:	bf00      	nop

Disassembly of section .text.ADCFIFOLvlGet:

00000000 <ADCFIFOLvlGet>:
   0:	b480      	push	{r7}
   2:	b085      	sub	sp, #20
   4:	af00      	add	r7, sp, #0
   6:	6078      	str	r0, [r7, #4]
   8:	6039      	str	r1, [r7, #0]
   a:	683b      	ldr	r3, [r7, #0]
   c:	3394      	adds	r3, #148	; 0x94
   e:	60fb      	str	r3, [r7, #12]
  10:	687a      	ldr	r2, [r7, #4]
  12:	68fb      	ldr	r3, [r7, #12]
  14:	4413      	add	r3, r2
  16:	681b      	ldr	r3, [r3, #0]
  18:	b2db      	uxtb	r3, r3
  1a:	f003 0307 	and.w	r3, r3, #7
  1e:	b2db      	uxtb	r3, r3
  20:	4618      	mov	r0, r3
  22:	3714      	adds	r7, #20
  24:	46bd      	mov	sp, r7
  26:	f85d 7b04 	ldr.w	r7, [sp], #4
  2a:	4770      	bx	lr

Disassembly of section .text.ADCFIFORead:

00000000 <ADCFIFORead>:
   0:	b480      	push	{r7}
   2:	b085      	sub	sp, #20
   4:	af00      	add	r7, sp, #0
   6:	6078      	str	r0, [r7, #4]
   8:	6039      	str	r1, [r7, #0]
   a:	683b      	ldr	r3, [r7, #0]
   c:	3374      	adds	r3, #116	; 0x74
   e:	60fb      	str	r3, [r7, #12]
  10:	687a      	ldr	r2, [r7, #4]
  12:	68fb      	ldr	r3, [r7, #12]
  14:	4413      	add	r3, r2
  16:	681b      	ldr	r3, [r3, #0]
  18:	4618      	mov	r0, r3
  1a:	3714      	adds	r7, #20
  1c:	46bd      	mov	sp, r7
  1e:	f85d 7b04 	ldr.w	r7, [sp], #4
  22:	4770      	bx	lr

Disassembly of section .text.AESConfigSet:

00000000 <AESConfigSet>:
   0:	b480      	push	{r7}
   2:	b083      	sub	sp, #12
   4:	af00      	add	r7, sp, #0
   6:	6078      	str	r0, [r7, #4]
   8:	6039      	str	r1, [r7, #0]
   a:	687b      	ldr	r3, [r7, #4]
   c:	3350      	adds	r3, #80	; 0x50
   e:	681b      	ldr	r3, [r3, #0]
  10:	f003 5300 	and.w	r3, r3, #536870912	; 0x20000000
  14:	2b00      	cmp	r3, #0
  16:	d003      	beq.n	20 <AESConfigSet+0x20>
  18:	683b      	ldr	r3, [r7, #0]
  1a:	f043 5300 	orr.w	r3, r3, #536870912	; 0x20000000
  1e:	603b      	str	r3, [r7, #0]
  20:	687b      	ldr	r3, [r7, #4]
  22:	3350      	adds	r3, #80	; 0x50
  24:	683a      	ldr	r2, [r7, #0]
  26:	601a      	str	r2, [r3, #0]
  28:	370c      	adds	r7, #12
  2a:	46bd      	mov	sp, r7
  2c:	f85d 7b04 	ldr.w	r7, [sp], #4
  30:	4770      	bx	lr
  32:	bf00      	nop

Disassembly of section .text.AESKey1Set:

00000000 <AESKey1Set>:
   0:	b480      	push	{r7}
   2:	b085      	sub	sp, #20
   4:	af00      	add	r7, sp, #0
   6:	60f8      	str	r0, [r7, #12]
   8:	60b9      	str	r1, [r7, #8]
   a:	607a      	str	r2, [r7, #4]
   c:	68fb      	ldr	r3, [r7, #12]
   e:	3338      	adds	r3, #56	; 0x38
  10:	68ba      	ldr	r2, [r7, #8]
  12:	6812      	ldr	r2, [r2, #0]
  14:	601a      	str	r2, [r3, #0]
  16:	68fb      	ldr	r3, [r7, #12]
  18:	333c      	adds	r3, #60	; 0x3c
  1a:	68ba      	ldr	r2, [r7, #8]
  1c:	6852      	ldr	r2, [r2, #4]
  1e:	601a      	str	r2, [r3, #0]
  20:	68fb      	ldr	r3, [r7, #12]
  22:	3330      	adds	r3, #48	; 0x30
  24:	68ba      	ldr	r2, [r7, #8]
  26:	6892      	ldr	r2, [r2, #8]
  28:	601a      	str	r2, [r3, #0]
  2a:	68fb      	ldr	r3, [r7, #12]
  2c:	3334      	adds	r3, #52	; 0x34
  2e:	68ba      	ldr	r2, [r7, #8]
  30:	68d2      	ldr	r2, [r2, #12]
  32:	601a      	str	r2, [r3, #0]
  34:	687b      	ldr	r3, [r7, #4]
  36:	2b08      	cmp	r3, #8
  38:	d009      	beq.n	4e <AESKey1Set+0x4e>
  3a:	68fb      	ldr	r3, [r7, #12]
  3c:	3328      	adds	r3, #40	; 0x28
  3e:	68ba      	ldr	r2, [r7, #8]
  40:	6912      	ldr	r2, [r2, #16]
  42:	601a      	str	r2, [r3, #0]
  44:	68fb      	ldr	r3, [r7, #12]
  46:	332c      	adds	r3, #44	; 0x2c
  48:	68ba      	ldr	r2, [r7, #8]
  4a:	6952      	ldr	r2, [r2, #20]
  4c:	601a      	str	r2, [r3, #0]
  4e:	687b      	ldr	r3, [r7, #4]
  50:	2b18      	cmp	r3, #24
  52:	d109      	bne.n	68 <AESKey1Set+0x68>
  54:	68fb      	ldr	r3, [r7, #12]
  56:	3320      	adds	r3, #32
  58:	68ba      	ldr	r2, [r7, #8]
  5a:	6992      	ldr	r2, [r2, #24]
  5c:	601a      	str	r2, [r3, #0]
  5e:	68fb      	ldr	r3, [r7, #12]
  60:	3324      	adds	r3, #36	; 0x24
  62:	68ba      	ldr	r2, [r7, #8]
  64:	69d2      	ldr	r2, [r2, #28]
  66:	601a      	str	r2, [r3, #0]
  68:	3714      	adds	r7, #20
  6a:	46bd      	mov	sp, r7
  6c:	f85d 7b04 	ldr.w	r7, [sp], #4
  70:	4770      	bx	lr
  72:	bf00      	nop

Disassembly of section .text.AESKey2Set:

00000000 <AESKey2Set>:
   0:	b480      	push	{r7}
   2:	b085      	sub	sp, #20
   4:	af00      	add	r7, sp, #0
   6:	60f8      	str	r0, [r7, #12]
   8:	60b9      	str	r1, [r7, #8]
   a:	607a      	str	r2, [r7, #4]
   c:	68fb      	ldr	r3, [r7, #12]
   e:	3318      	adds	r3, #24
  10:	68ba      	ldr	r2, [r7, #8]
  12:	6812      	ldr	r2, [r2, #0]
  14:	601a      	str	r2, [r3, #0]
  16:	68fb      	ldr	r3, [r7, #12]
  18:	331c      	adds	r3, #28
  1a:	68ba      	ldr	r2, [r7, #8]
  1c:	6852      	ldr	r2, [r2, #4]
  1e:	601a      	str	r2, [r3, #0]
  20:	68fb      	ldr	r3, [r7, #12]
  22:	3310      	adds	r3, #16
  24:	68ba      	ldr	r2, [r7, #8]
  26:	6892      	ldr	r2, [r2, #8]
  28:	601a      	str	r2, [r3, #0]
  2a:	68fb      	ldr	r3, [r7, #12]
  2c:	3314      	adds	r3, #20
  2e:	68ba      	ldr	r2, [r7, #8]
  30:	68d2      	ldr	r2, [r2, #12]
  32:	601a      	str	r2, [r3, #0]
  34:	687b      	ldr	r3, [r7, #4]
  36:	2b08      	cmp	r3, #8
  38:	d009      	beq.n	4e <AESKey2Set+0x4e>
  3a:	68fb      	ldr	r3, [r7, #12]
  3c:	3308      	adds	r3, #8
  3e:	68ba      	ldr	r2, [r7, #8]
  40:	6912      	ldr	r2, [r2, #16]
  42:	601a      	str	r2, [r3, #0]
  44:	68fb      	ldr	r3, [r7, #12]
  46:	330c      	adds	r3, #12
  48:	68ba      	ldr	r2, [r7, #8]
  4a:	6952      	ldr	r2, [r2, #20]
  4c:	601a      	str	r2, [r3, #0]
  4e:	687b      	ldr	r3, [r7, #4]
  50:	2b18      	cmp	r3, #24
  52:	d108      	bne.n	66 <AESKey2Set+0x66>
  54:	68fb      	ldr	r3, [r7, #12]
  56:	68ba      	ldr	r2, [r7, #8]
  58:	6992      	ldr	r2, [r2, #24]
  5a:	601a      	str	r2, [r3, #0]
  5c:	68fb      	ldr	r3, [r7, #12]
  5e:	3304      	adds	r3, #4
  60:	68ba      	ldr	r2, [r7, #8]
  62:	69d2      	ldr	r2, [r2, #28]
  64:	601a      	str	r2, [r3, #0]
  66:	3714      	adds	r7, #20
  68:	46bd      	mov	sp, r7
  6a:	f85d 7b04 	ldr.w	r7, [sp], #4
  6e:	4770      	bx	lr

Disassembly of section .text.AESKey3Set:

00000000 <AESKey3Set>:
   0:	b480      	push	{r7}
   2:	b083      	sub	sp, #12
   4:	af00      	add	r7, sp, #0
   6:	6078      	str	r0, [r7, #4]
   8:	6039      	str	r1, [r7, #0]
   a:	687b      	ldr	r3, [r7, #4]
   c:	3308      	adds	r3, #8
   e:	683a      	ldr	r2, [r7, #0]
  10:	6812      	ldr	r2, [r2, #0]
  12:	601a      	str	r2, [r3, #0]
  14:	687b      	ldr	r3, [r7, #4]
  16:	330c      	adds	r3, #12
  18:	683a      	ldr	r2, [r7, #0]
  1a:	6852      	ldr	r2, [r2, #4]
  1c:	601a      	str	r2, [r3, #0]
  1e:	687b      	ldr	r3, [r7, #4]
  20:	683a      	ldr	r2, [r7, #0]
  22:	6892      	ldr	r2, [r2, #8]
  24:	601a      	str	r2, [r3, #0]
  26:	687b      	ldr	r3, [r7, #4]
  28:	3304      	adds	r3, #4
  2a:	683a      	ldr	r2, [r7, #0]
  2c:	68d2      	ldr	r2, [r2, #12]
  2e:	601a      	str	r2, [r3, #0]
  30:	370c      	adds	r7, #12
  32:	46bd      	mov	sp, r7
  34:	f85d 7b04 	ldr.w	r7, [sp], #4
  38:	4770      	bx	lr
  3a:	bf00      	nop

Disassembly of section .text.AESIVSet:

00000000 <AESIVSet>:
   0:	b480      	push	{r7}
   2:	b083      	sub	sp, #12
   4:	af00      	add	r7, sp, #0
   6:	6078      	str	r0, [r7, #4]
   8:	6039      	str	r1, [r7, #0]
   a:	687b      	ldr	r3, [r7, #4]
   c:	3340      	adds	r3, #64	; 0x40
   e:	683a      	ldr	r2, [r7, #0]
  10:	6812      	ldr	r2, [r2, #0]
  12:	601a      	str	r2, [r3, #0]
  14:	687b      	ldr	r3, [r7, #4]
  16:	3344      	adds	r3, #68	; 0x44
  18:	683a      	ldr	r2, [r7, #0]
  1a:	6852      	ldr	r2, [r2, #4]
  1c:	601a      	str	r2, [r3, #0]
  1e:	687b      	ldr	r3, [r7, #4]
  20:	3348      	adds	r3, #72	; 0x48
  22:	683a      	ldr	r2, [r7, #0]
  24:	6892      	ldr	r2, [r2, #8]
  26:	601a      	str	r2, [r3, #0]
  28:	687b      	ldr	r3, [r7, #4]
  2a:	334c      	adds	r3, #76	; 0x4c
  2c:	683a      	ldr	r2, [r7, #0]
  2e:	68d2      	ldr	r2, [r2, #12]
  30:	601a      	str	r2, [r3, #0]
  32:	370c      	adds	r7, #12
  34:	46bd      	mov	sp, r7
  36:	f85d 7b04 	ldr.w	r7, [sp], #4
  3a:	4770      	bx	lr

Disassembly of section .text.AESTagRead:

00000000 <AESTagRead>:
   0:	b480      	push	{r7}
   2:	b083      	sub	sp, #12
   4:	af00      	add	r7, sp, #0
   6:	6078      	str	r0, [r7, #4]
   8:	6039      	str	r1, [r7, #0]
   a:	687b      	ldr	r3, [r7, #4]
   c:	3370      	adds	r3, #112	; 0x70
   e:	681a      	ldr	r2, [r3, #0]
  10:	683b      	ldr	r3, [r7, #0]
  12:	601a      	str	r2, [r3, #0]
  14:	683b      	ldr	r3, [r7, #0]
  16:	3304      	adds	r3, #4
  18:	687a      	ldr	r2, [r7, #4]
  1a:	3274      	adds	r2, #116	; 0x74
  1c:	6812      	ldr	r2, [r2, #0]
  1e:	601a      	str	r2, [r3, #0]
  20:	683b      	ldr	r3, [r7, #0]
  22:	3308      	adds	r3, #8
  24:	687a      	ldr	r2, [r7, #4]
  26:	3278      	adds	r2, #120	; 0x78
  28:	6812      	ldr	r2, [r2, #0]
  2a:	601a      	str	r2, [r3, #0]
  2c:	683b      	ldr	r3, [r7, #0]
  2e:	330c      	adds	r3, #12
  30:	687a      	ldr	r2, [r7, #4]
  32:	327c      	adds	r2, #124	; 0x7c
  34:	6812      	ldr	r2, [r2, #0]
  36:	601a      	str	r2, [r3, #0]
  38:	370c      	adds	r7, #12
  3a:	46bd      	mov	sp, r7
  3c:	f85d 7b04 	ldr.w	r7, [sp], #4
  40:	4770      	bx	lr
  42:	bf00      	nop

Disassembly of section .text.AESDataLengthSet:

00000000 <AESDataLengthSet>:
   0:	b4b0      	push	{r4, r5, r7}
   2:	b085      	sub	sp, #20
   4:	af00      	add	r7, sp, #0
   6:	60f8      	str	r0, [r7, #12]
   8:	e9c7 2300 	strd	r2, r3, [r7]
   c:	68fb      	ldr	r3, [r7, #12]
   e:	3354      	adds	r3, #84	; 0x54
  10:	683a      	ldr	r2, [r7, #0]
  12:	601a      	str	r2, [r3, #0]
  14:	68fb      	ldr	r3, [r7, #12]
  16:	3358      	adds	r3, #88	; 0x58
  18:	4619      	mov	r1, r3
  1a:	e9d7 2300 	ldrd	r2, r3, [r7]
  1e:	001c      	movs	r4, r3
  20:	2500      	movs	r5, #0
  22:	4623      	mov	r3, r4
  24:	600b      	str	r3, [r1, #0]
  26:	3714      	adds	r7, #20
  28:	46bd      	mov	sp, r7
  2a:	bcb0      	pop	{r4, r5, r7}
  2c:	4770      	bx	lr
  2e:	bf00      	nop

Disassembly of section .text.AESAuthDataLengthSet:

00000000 <AESAuthDataLengthSet>:
   0:	b480      	push	{r7}
   2:	b083      	sub	sp, #12
   4:	af00      	add	r7, sp, #0
   6:	6078      	str	r0, [r7, #4]
   8:	6039      	str	r1, [r7, #0]
   a:	687b      	ldr	r3, [r7, #4]
   c:	335c      	adds	r3, #92	; 0x5c
   e:	683a      	ldr	r2, [r7, #0]
  10:	601a      	str	r2, [r3, #0]
  12:	370c      	adds	r7, #12
  14:	46bd      	mov	sp, r7
  16:	f85d 7b04 	ldr.w	r7, [sp], #4
  1a:	4770      	bx	lr

Disassembly of section .text.AESDataReadNonBlocking:

00000000 <AESDataReadNonBlocking>:
   0:	b480      	push	{r7}
   2:	b08b      	sub	sp, #44	; 0x2c
   4:	af00      	add	r7, sp, #0
   6:	60f8      	str	r0, [r7, #12]
   8:	60b9      	str	r1, [r7, #8]
   a:	4613      	mov	r3, r2
   c:	71fb      	strb	r3, [r7, #7]
   e:	79fb      	ldrb	r3, [r7, #7]
  10:	2b00      	cmp	r3, #0
  12:	d002      	beq.n	1a <AESDataReadNonBlocking+0x1a>
  14:	79fb      	ldrb	r3, [r7, #7]
  16:	2b10      	cmp	r3, #16
  18:	d901      	bls.n	1e <AESDataReadNonBlocking+0x1e>
  1a:	2300      	movs	r3, #0
  1c:	e034      	b.n	88 <AESDataReadNonBlocking+0x88>
  1e:	68fb      	ldr	r3, [r7, #12]
  20:	3350      	adds	r3, #80	; 0x50
  22:	681b      	ldr	r3, [r3, #0]
  24:	f003 0301 	and.w	r3, r3, #1
  28:	2b00      	cmp	r3, #0
  2a:	d101      	bne.n	30 <AESDataReadNonBlocking+0x30>
  2c:	2300      	movs	r3, #0
  2e:	e02b      	b.n	88 <AESDataReadNonBlocking+0x88>
  30:	68fb      	ldr	r3, [r7, #12]
  32:	336c      	adds	r3, #108	; 0x6c
  34:	681b      	ldr	r3, [r3, #0]
  36:	613b      	str	r3, [r7, #16]
  38:	68fb      	ldr	r3, [r7, #12]
  3a:	3368      	adds	r3, #104	; 0x68
  3c:	681b      	ldr	r3, [r3, #0]
  3e:	617b      	str	r3, [r7, #20]
  40:	68fb      	ldr	r3, [r7, #12]
  42:	3364      	adds	r3, #100	; 0x64
  44:	681b      	ldr	r3, [r3, #0]
  46:	61bb      	str	r3, [r7, #24]
  48:	68fb      	ldr	r3, [r7, #12]
  4a:	3360      	adds	r3, #96	; 0x60
  4c:	681b      	ldr	r3, [r3, #0]
  4e:	61fb      	str	r3, [r7, #28]
  50:	f107 0310 	add.w	r3, r7, #16
  54:	623b      	str	r3, [r7, #32]
  56:	2300      	movs	r3, #0
  58:	f887 3027 	strb.w	r3, [r7, #39]	; 0x27
  5c:	e00e      	b.n	7c <AESDataReadNonBlocking+0x7c>
  5e:	f897 3027 	ldrb.w	r3, [r7, #39]	; 0x27
  62:	68ba      	ldr	r2, [r7, #8]
  64:	4413      	add	r3, r2
  66:	f897 2027 	ldrb.w	r2, [r7, #39]	; 0x27
  6a:	6a39      	ldr	r1, [r7, #32]
  6c:	440a      	add	r2, r1
  6e:	7812      	ldrb	r2, [r2, #0]
  70:	701a      	strb	r2, [r3, #0]
  72:	f897 3027 	ldrb.w	r3, [r7, #39]	; 0x27
  76:	3301      	adds	r3, #1
  78:	f887 3027 	strb.w	r3, [r7, #39]	; 0x27
  7c:	f897 2027 	ldrb.w	r2, [r7, #39]	; 0x27
  80:	79fb      	ldrb	r3, [r7, #7]
  82:	429a      	cmp	r2, r3
  84:	d3eb      	bcc.n	5e <AESDataReadNonBlocking+0x5e>
  86:	2301      	movs	r3, #1
  88:	4618      	mov	r0, r3
  8a:	372c      	adds	r7, #44	; 0x2c
  8c:	46bd      	mov	sp, r7
  8e:	f85d 7b04 	ldr.w	r7, [sp], #4
  92:	4770      	bx	lr

Disassembly of section .text.AESDataRead:

00000000 <AESDataRead>:
   0:	b480      	push	{r7}
   2:	b08b      	sub	sp, #44	; 0x2c
   4:	af00      	add	r7, sp, #0
   6:	60f8      	str	r0, [r7, #12]
   8:	60b9      	str	r1, [r7, #8]
   a:	4613      	mov	r3, r2
   c:	71fb      	strb	r3, [r7, #7]
   e:	79fb      	ldrb	r3, [r7, #7]
  10:	2b00      	cmp	r3, #0
  12:	d002      	beq.n	1a <AESDataRead+0x1a>
  14:	79fb      	ldrb	r3, [r7, #7]
  16:	2b10      	cmp	r3, #16
  18:	d900      	bls.n	1c <AESDataRead+0x1c>
  1a:	e033      	b.n	84 <AESDataRead+0x84>
  1c:	bf00      	nop
  1e:	68fb      	ldr	r3, [r7, #12]
  20:	3350      	adds	r3, #80	; 0x50
  22:	681b      	ldr	r3, [r3, #0]
  24:	f003 0301 	and.w	r3, r3, #1
  28:	2b00      	cmp	r3, #0
  2a:	d0f8      	beq.n	1e <AESDataRead+0x1e>
  2c:	68fb      	ldr	r3, [r7, #12]
  2e:	336c      	adds	r3, #108	; 0x6c
  30:	681b      	ldr	r3, [r3, #0]
  32:	613b      	str	r3, [r7, #16]
  34:	68fb      	ldr	r3, [r7, #12]
  36:	3368      	adds	r3, #104	; 0x68
  38:	681b      	ldr	r3, [r3, #0]
  3a:	617b      	str	r3, [r7, #20]
  3c:	68fb      	ldr	r3, [r7, #12]
  3e:	3364      	adds	r3, #100	; 0x64
  40:	681b      	ldr	r3, [r3, #0]
  42:	61bb      	str	r3, [r7, #24]
  44:	68fb      	ldr	r3, [r7, #12]
  46:	3360      	adds	r3, #96	; 0x60
  48:	681b      	ldr	r3, [r3, #0]
  4a:	61fb      	str	r3, [r7, #28]
  4c:	f107 0310 	add.w	r3, r7, #16
  50:	623b      	str	r3, [r7, #32]
  52:	2300      	movs	r3, #0
  54:	f887 3027 	strb.w	r3, [r7, #39]	; 0x27
  58:	e00e      	b.n	78 <AESDataRead+0x78>
  5a:	f897 3027 	ldrb.w	r3, [r7, #39]	; 0x27
  5e:	68ba      	ldr	r2, [r7, #8]
  60:	4413      	add	r3, r2
  62:	f897 2027 	ldrb.w	r2, [r7, #39]	; 0x27
  66:	6a39      	ldr	r1, [r7, #32]
  68:	440a      	add	r2, r1
  6a:	7812      	ldrb	r2, [r2, #0]
  6c:	701a      	strb	r2, [r3, #0]
  6e:	f897 3027 	ldrb.w	r3, [r7, #39]	; 0x27
  72:	3301      	adds	r3, #1
  74:	f887 3027 	strb.w	r3, [r7, #39]	; 0x27
  78:	f897 2027 	ldrb.w	r2, [r7, #39]	; 0x27
  7c:	79fb      	ldrb	r3, [r7, #7]
  7e:	429a      	cmp	r2, r3
  80:	d3eb      	bcc.n	5a <AESDataRead+0x5a>
  82:	bf00      	nop
  84:	372c      	adds	r7, #44	; 0x2c
  86:	46bd      	mov	sp, r7
  88:	f85d 7b04 	ldr.w	r7, [sp], #4
  8c:	4770      	bx	lr
  8e:	bf00      	nop

Disassembly of section .text.AESDataWriteNonBlocking:

00000000 <AESDataWriteNonBlocking>:
   0:	b480      	push	{r7}
   2:	b08b      	sub	sp, #44	; 0x2c
   4:	af00      	add	r7, sp, #0
   6:	60f8      	str	r0, [r7, #12]
   8:	60b9      	str	r1, [r7, #8]
   a:	4613      	mov	r3, r2
   c:	71fb      	strb	r3, [r7, #7]
   e:	2300      	movs	r3, #0
  10:	613b      	str	r3, [r7, #16]
  12:	2300      	movs	r3, #0
  14:	617b      	str	r3, [r7, #20]
  16:	2300      	movs	r3, #0
  18:	61bb      	str	r3, [r7, #24]
  1a:	2300      	movs	r3, #0
  1c:	61fb      	str	r3, [r7, #28]
  1e:	79fb      	ldrb	r3, [r7, #7]
  20:	2b00      	cmp	r3, #0
  22:	d002      	beq.n	2a <AESDataWriteNonBlocking+0x2a>
  24:	79fb      	ldrb	r3, [r7, #7]
  26:	2b10      	cmp	r3, #16
  28:	d901      	bls.n	2e <AESDataWriteNonBlocking+0x2e>
  2a:	2300      	movs	r3, #0
  2c:	e034      	b.n	98 <AESDataWriteNonBlocking+0x98>
  2e:	68fb      	ldr	r3, [r7, #12]
  30:	3350      	adds	r3, #80	; 0x50
  32:	681b      	ldr	r3, [r3, #0]
  34:	f003 0302 	and.w	r3, r3, #2
  38:	2b00      	cmp	r3, #0
  3a:	d101      	bne.n	40 <AESDataWriteNonBlocking+0x40>
  3c:	2300      	movs	r3, #0
  3e:	e02b      	b.n	98 <AESDataWriteNonBlocking+0x98>
  40:	f107 0310 	add.w	r3, r7, #16
  44:	623b      	str	r3, [r7, #32]
  46:	2300      	movs	r3, #0
  48:	f887 3027 	strb.w	r3, [r7, #39]	; 0x27
  4c:	e00e      	b.n	6c <AESDataWriteNonBlocking+0x6c>
  4e:	f897 3027 	ldrb.w	r3, [r7, #39]	; 0x27
  52:	6a3a      	ldr	r2, [r7, #32]
  54:	4413      	add	r3, r2
  56:	f897 2027 	ldrb.w	r2, [r7, #39]	; 0x27
  5a:	68b9      	ldr	r1, [r7, #8]
  5c:	440a      	add	r2, r1
  5e:	7812      	ldrb	r2, [r2, #0]
  60:	701a      	strb	r2, [r3, #0]
  62:	f897 3027 	ldrb.w	r3, [r7, #39]	; 0x27
  66:	3301      	adds	r3, #1
  68:	f887 3027 	strb.w	r3, [r7, #39]	; 0x27
  6c:	f897 2027 	ldrb.w	r2, [r7, #39]	; 0x27
  70:	79fb      	ldrb	r3, [r7, #7]
  72:	429a      	cmp	r2, r3
  74:	d3eb      	bcc.n	4e <AESDataWriteNonBlocking+0x4e>
  76:	68fb      	ldr	r3, [r7, #12]
  78:	336c      	adds	r3, #108	; 0x6c
  7a:	693a      	ldr	r2, [r7, #16]
  7c:	601a      	str	r2, [r3, #0]
  7e:	68fb      	ldr	r3, [r7, #12]
  80:	3368      	adds	r3, #104	; 0x68
  82:	697a      	ldr	r2, [r7, #20]
  84:	601a      	str	r2, [r3, #0]
  86:	68fb      	ldr	r3, [r7, #12]
  88:	3364      	adds	r3, #100	; 0x64
  8a:	69ba      	ldr	r2, [r7, #24]
  8c:	601a      	str	r2, [r3, #0]
  8e:	68fb      	ldr	r3, [r7, #12]
  90:	3360      	adds	r3, #96	; 0x60
  92:	69fa      	ldr	r2, [r7, #28]
  94:	601a      	str	r2, [r3, #0]
  96:	2301      	movs	r3, #1
  98:	4618      	mov	r0, r3
  9a:	372c      	adds	r7, #44	; 0x2c
  9c:	46bd      	mov	sp, r7
  9e:	f85d 7b04 	ldr.w	r7, [sp], #4
  a2:	4770      	bx	lr

Disassembly of section .text.AESDataWrite:

00000000 <AESDataWrite>:
   0:	b480      	push	{r7}
   2:	b08b      	sub	sp, #44	; 0x2c
   4:	af00      	add	r7, sp, #0
   6:	60f8      	str	r0, [r7, #12]
   8:	60b9      	str	r1, [r7, #8]
   a:	4613      	mov	r3, r2
   c:	71fb      	strb	r3, [r7, #7]
   e:	2300      	movs	r3, #0
  10:	613b      	str	r3, [r7, #16]
  12:	2300      	movs	r3, #0
  14:	617b      	str	r3, [r7, #20]
  16:	2300      	movs	r3, #0
  18:	61bb      	str	r3, [r7, #24]
  1a:	2300      	movs	r3, #0
  1c:	61fb      	str	r3, [r7, #28]
  1e:	79fb      	ldrb	r3, [r7, #7]
  20:	2b00      	cmp	r3, #0
  22:	d002      	beq.n	2a <AESDataWrite+0x2a>
  24:	79fb      	ldrb	r3, [r7, #7]
  26:	2b10      	cmp	r3, #16
  28:	d900      	bls.n	2c <AESDataWrite+0x2c>
  2a:	e032      	b.n	92 <AESDataWrite+0x92>
  2c:	bf00      	nop
  2e:	68fb      	ldr	r3, [r7, #12]
  30:	3350      	adds	r3, #80	; 0x50
  32:	681b      	ldr	r3, [r3, #0]
  34:	f003 0302 	and.w	r3, r3, #2
  38:	2b00      	cmp	r3, #0
  3a:	d0f8      	beq.n	2e <AESDataWrite+0x2e>
  3c:	f107 0310 	add.w	r3, r7, #16
  40:	623b      	str	r3, [r7, #32]
  42:	2300      	movs	r3, #0
  44:	f887 3027 	strb.w	r3, [r7, #39]	; 0x27
  48:	e00e      	b.n	68 <AESDataWrite+0x68>
  4a:	f897 3027 	ldrb.w	r3, [r7, #39]	; 0x27
  4e:	6a3a      	ldr	r2, [r7, #32]
  50:	4413      	add	r3, r2
  52:	f897 2027 	ldrb.w	r2, [r7, #39]	; 0x27
  56:	68b9      	ldr	r1, [r7, #8]
  58:	440a      	add	r2, r1
  5a:	7812      	ldrb	r2, [r2, #0]
  5c:	701a      	strb	r2, [r3, #0]
  5e:	f897 3027 	ldrb.w	r3, [r7, #39]	; 0x27
  62:	3301      	adds	r3, #1
  64:	f887 3027 	strb.w	r3, [r7, #39]	; 0x27
  68:	f897 2027 	ldrb.w	r2, [r7, #39]	; 0x27
  6c:	79fb      	ldrb	r3, [r7, #7]
  6e:	429a      	cmp	r2, r3
  70:	d3eb      	bcc.n	4a <AESDataWrite+0x4a>
  72:	68fb      	ldr	r3, [r7, #12]
  74:	336c      	adds	r3, #108	; 0x6c
  76:	693a      	ldr	r2, [r7, #16]
  78:	601a      	str	r2, [r3, #0]
  7a:	68fb      	ldr	r3, [r7, #12]
  7c:	3368      	adds	r3, #104	; 0x68
  7e:	697a      	ldr	r2, [r7, #20]
  80:	601a      	str	r2, [r3, #0]
  82:	68fb      	ldr	r3, [r7, #12]
  84:	3364      	adds	r3, #100	; 0x64
  86:	69ba      	ldr	r2, [r7, #24]
  88:	601a      	str	r2, [r3, #0]
  8a:	68fb      	ldr	r3, [r7, #12]
  8c:	3360      	adds	r3, #96	; 0x60
  8e:	69fa      	ldr	r2, [r7, #28]
  90:	601a      	str	r2, [r3, #0]
  92:	372c      	adds	r7, #44	; 0x2c
  94:	46bd      	mov	sp, r7
  96:	f85d 7b04 	ldr.w	r7, [sp], #4
  9a:	4770      	bx	lr

Disassembly of section .text.AESDataProcess:

00000000 <AESDataProcess>:
   0:	b580      	push	{r7, lr}
   2:	b088      	sub	sp, #32
   4:	af00      	add	r7, sp, #0
   6:	60f8      	str	r0, [r7, #12]
   8:	60b9      	str	r1, [r7, #8]
   a:	607a      	str	r2, [r7, #4]
   c:	603b      	str	r3, [r7, #0]
   e:	683b      	ldr	r3, [r7, #0]
  10:	461a      	mov	r2, r3
  12:	f04f 0300 	mov.w	r3, #0
  16:	f44f 40e0 	mov.w	r0, #28672	; 0x7000
  1a:	f2c4 4003 	movt	r0, #17411	; 0x4403
  1e:	f7ff fffe 	bl	0 <AESDataProcess>
  22:	683b      	ldr	r3, [r7, #0]
  24:	091b      	lsrs	r3, r3, #4
  26:	61bb      	str	r3, [r7, #24]
  28:	2300      	movs	r3, #0
  2a:	61fb      	str	r3, [r7, #28]
  2c:	e014      	b.n	58 <AESDataProcess+0x58>
  2e:	69fb      	ldr	r3, [r7, #28]
  30:	011b      	lsls	r3, r3, #4
  32:	68ba      	ldr	r2, [r7, #8]
  34:	4413      	add	r3, r2
  36:	68f8      	ldr	r0, [r7, #12]
  38:	4619      	mov	r1, r3
  3a:	2210      	movs	r2, #16
  3c:	f7ff fffe 	bl	0 <AESDataProcess>
  40:	69fb      	ldr	r3, [r7, #28]
  42:	011b      	lsls	r3, r3, #4
  44:	687a      	ldr	r2, [r7, #4]
  46:	4413      	add	r3, r2
  48:	68f8      	ldr	r0, [r7, #12]
  4a:	4619      	mov	r1, r3
  4c:	2210      	movs	r2, #16
  4e:	f7ff fffe 	bl	0 <AESDataProcess>
  52:	69fb      	ldr	r3, [r7, #28]
  54:	3301      	adds	r3, #1
  56:	61fb      	str	r3, [r7, #28]
  58:	69fa      	ldr	r2, [r7, #28]
  5a:	69bb      	ldr	r3, [r7, #24]
  5c:	429a      	cmp	r2, r3
  5e:	d3e6      	bcc.n	2e <AESDataProcess+0x2e>
  60:	683b      	ldr	r3, [r7, #0]
  62:	f003 030f 	and.w	r3, r3, #15
  66:	617b      	str	r3, [r7, #20]
  68:	697b      	ldr	r3, [r7, #20]
  6a:	2b00      	cmp	r3, #0
  6c:	d019      	beq.n	a2 <AESDataProcess+0xa2>
  6e:	69fb      	ldr	r3, [r7, #28]
  70:	69ba      	ldr	r2, [r7, #24]
  72:	fb02 f303 	mul.w	r3, r2, r3
  76:	68ba      	ldr	r2, [r7, #8]
  78:	441a      	add	r2, r3
  7a:	697b      	ldr	r3, [r7, #20]
  7c:	b2db      	uxtb	r3, r3
  7e:	68f8      	ldr	r0, [r7, #12]
  80:	4611      	mov	r1, r2
  82:	461a      	mov	r2, r3
  84:	f7ff fffe 	bl	0 <AESDataProcess>
  88:	69fb      	ldr	r3, [r7, #28]
  8a:	69ba      	ldr	r2, [r7, #24]
  8c:	fb02 f303 	mul.w	r3, r2, r3
  90:	687a      	ldr	r2, [r7, #4]
  92:	441a      	add	r2, r3
  94:	697b      	ldr	r3, [r7, #20]
  96:	b2db      	uxtb	r3, r3
  98:	68f8      	ldr	r0, [r7, #12]
  9a:	4611      	mov	r1, r2
  9c:	461a      	mov	r2, r3
  9e:	f7ff fffe 	bl	0 <AESDataProcess>
  a2:	2301      	movs	r3, #1
  a4:	4618      	mov	r0, r3
  a6:	3720      	adds	r7, #32
  a8:	46bd      	mov	sp, r7
  aa:	bd80      	pop	{r7, pc}

Disassembly of section .text.AESDataMAC:

00000000 <AESDataMAC>:
   0:	b580      	push	{r7, lr}
   2:	b088      	sub	sp, #32
   4:	af00      	add	r7, sp, #0
   6:	60f8      	str	r0, [r7, #12]
   8:	60b9      	str	r1, [r7, #8]
   a:	607a      	str	r2, [r7, #4]
   c:	603b      	str	r3, [r7, #0]
   e:	687b      	ldr	r3, [r7, #4]
  10:	461a      	mov	r2, r3
  12:	f04f 0300 	mov.w	r3, #0
  16:	f44f 40e0 	mov.w	r0, #28672	; 0x7000
  1a:	f2c4 4003 	movt	r0, #17411	; 0x4403
  1e:	f7ff fffe 	bl	0 <AESDataMAC>
  22:	687b      	ldr	r3, [r7, #4]
  24:	091b      	lsrs	r3, r3, #4
  26:	61bb      	str	r3, [r7, #24]
  28:	2300      	movs	r3, #0
  2a:	61fb      	str	r3, [r7, #28]
  2c:	e00b      	b.n	46 <AESDataMAC+0x46>
  2e:	69fb      	ldr	r3, [r7, #28]
  30:	011b      	lsls	r3, r3, #4
  32:	68ba      	ldr	r2, [r7, #8]
  34:	4413      	add	r3, r2
  36:	68f8      	ldr	r0, [r7, #12]
  38:	4619      	mov	r1, r3
  3a:	2210      	movs	r2, #16
  3c:	f7ff fffe 	bl	0 <AESDataMAC>
  40:	69fb      	ldr	r3, [r7, #28]
  42:	3301      	adds	r3, #1
  44:	61fb      	str	r3, [r7, #28]
  46:	69fa      	ldr	r2, [r7, #28]
  48:	69bb      	ldr	r3, [r7, #24]
  4a:	429a      	cmp	r2, r3
  4c:	d3ef      	bcc.n	2e <AESDataMAC+0x2e>
  4e:	687b      	ldr	r3, [r7, #4]
  50:	f003 030f 	and.w	r3, r3, #15
  54:	617b      	str	r3, [r7, #20]
  56:	697b      	ldr	r3, [r7, #20]
  58:	2b00      	cmp	r3, #0
  5a:	d00d      	beq.n	78 <AESDataMAC+0x78>
  5c:	69fb      	ldr	r3, [r7, #28]
  5e:	69ba      	ldr	r2, [r7, #24]
  60:	fb02 f303 	mul.w	r3, r2, r3
  64:	68ba      	ldr	r2, [r7, #8]
  66:	441a      	add	r2, r3
  68:	697b      	ldr	r3, [r7, #20]
  6a:	b2db      	uxtb	r3, r3
  6c:	68f8      	ldr	r0, [r7, #12]
  6e:	4611      	mov	r1, r2
  70:	461a      	mov	r2, r3
  72:	f7ff fffe 	bl	0 <AESDataMAC>
  76:	e7ff      	b.n	78 <AESDataMAC+0x78>
  78:	bf00      	nop
  7a:	f247 0350 	movw	r3, #28752	; 0x7050
  7e:	f2c4 4303 	movt	r3, #17411	; 0x4403
  82:	681b      	ldr	r3, [r3, #0]
  84:	f003 4380 	and.w	r3, r3, #1073741824	; 0x40000000
  88:	2b00      	cmp	r3, #0
  8a:	d0f6      	beq.n	7a <AESDataMAC+0x7a>
  8c:	f44f 40e0 	mov.w	r0, #28672	; 0x7000
  90:	f2c4 4003 	movt	r0, #17411	; 0x4403
  94:	6839      	ldr	r1, [r7, #0]
  96:	f7ff fffe 	bl	0 <AESDataMAC>
  9a:	2301      	movs	r3, #1
  9c:	4618      	mov	r0, r3
  9e:	3720      	adds	r7, #32
  a0:	46bd      	mov	sp, r7
  a2:	bd80      	pop	{r7, pc}

Disassembly of section .text.AESDataProcessAE:

00000000 <AESDataProcessAE>:
   0:	b580      	push	{r7, lr}
   2:	b086      	sub	sp, #24
   4:	af00      	add	r7, sp, #0
   6:	60f8      	str	r0, [r7, #12]
   8:	60b9      	str	r1, [r7, #8]
   a:	607a      	str	r2, [r7, #4]
   c:	603b      	str	r3, [r7, #0]
   e:	683b      	ldr	r3, [r7, #0]
  10:	461a      	mov	r2, r3
  12:	f04f 0300 	mov.w	r3, #0
  16:	f44f 40e0 	mov.w	r0, #28672	; 0x7000
  1a:	f2c4 4003 	movt	r0, #17411	; 0x4403
  1e:	f7ff fffe 	bl	0 <AESDataProcessAE>
  22:	f44f 40e0 	mov.w	r0, #28672	; 0x7000
  26:	f2c4 4003 	movt	r0, #17411	; 0x4403
  2a:	6a79      	ldr	r1, [r7, #36]	; 0x24
  2c:	f7ff fffe 	bl	0 <AESDataProcessAE>
  30:	2300      	movs	r3, #0
  32:	617b      	str	r3, [r7, #20]
  34:	e00a      	b.n	4c <AESDataProcessAE+0x4c>
  36:	6a3a      	ldr	r2, [r7, #32]
  38:	697b      	ldr	r3, [r7, #20]
  3a:	4413      	add	r3, r2
  3c:	68f8      	ldr	r0, [r7, #12]
  3e:	4619      	mov	r1, r3
  40:	2210      	movs	r2, #16
  42:	f7ff fffe 	bl	0 <AESDataProcessAE>
  46:	697b      	ldr	r3, [r7, #20]
  48:	3310      	adds	r3, #16
  4a:	617b      	str	r3, [r7, #20]
  4c:	697a      	ldr	r2, [r7, #20]
  4e:	6a7b      	ldr	r3, [r7, #36]	; 0x24
  50:	429a      	cmp	r2, r3
  52:	d3f0      	bcc.n	36 <AESDataProcessAE+0x36>
  54:	2300      	movs	r3, #0
  56:	617b      	str	r3, [r7, #20]
  58:	e012      	b.n	80 <AESDataProcessAE+0x80>
  5a:	68ba      	ldr	r2, [r7, #8]
  5c:	697b      	ldr	r3, [r7, #20]
  5e:	4413      	add	r3, r2
  60:	68f8      	ldr	r0, [r7, #12]
  62:	4619      	mov	r1, r3
  64:	2210      	movs	r2, #16
  66:	f7ff fffe 	bl	0 <AESDataProcessAE>
  6a:	687a      	ldr	r2, [r7, #4]
  6c:	697b      	ldr	r3, [r7, #20]
  6e:	4413      	add	r3, r2
  70:	68f8      	ldr	r0, [r7, #12]
  72:	4619      	mov	r1, r3
  74:	2210      	movs	r2, #16
  76:	f7ff fffe 	bl	0 <AESDataProcessAE>
  7a:	697b      	ldr	r3, [r7, #20]
  7c:	3310      	adds	r3, #16
  7e:	617b      	str	r3, [r7, #20]
  80:	697a      	ldr	r2, [r7, #20]
  82:	683b      	ldr	r3, [r7, #0]
  84:	429a      	cmp	r2, r3
  86:	d3e8      	bcc.n	5a <AESDataProcessAE+0x5a>
  88:	bf00      	nop
  8a:	f247 0350 	movw	r3, #28752	; 0x7050
  8e:	f2c4 4303 	movt	r3, #17411	; 0x4403
  92:	681b      	ldr	r3, [r3, #0]
  94:	f003 4380 	and.w	r3, r3, #1073741824	; 0x40000000
  98:	2b00      	cmp	r3, #0
  9a:	d0f6      	beq.n	8a <AESDataProcessAE+0x8a>
  9c:	f44f 40e0 	mov.w	r0, #28672	; 0x7000
  a0:	f2c4 4003 	movt	r0, #17411	; 0x4403
  a4:	6ab9      	ldr	r1, [r7, #40]	; 0x28
  a6:	f7ff fffe 	bl	0 <AESDataProcessAE>
  aa:	2301      	movs	r3, #1
  ac:	4618      	mov	r0, r3
  ae:	3718      	adds	r7, #24
  b0:	46bd      	mov	sp, r7
  b2:	bd80      	pop	{r7, pc}

Disassembly of section .text.AESIntStatus:

00000000 <AESIntStatus>:
   0:	b480      	push	{r7}
   2:	b085      	sub	sp, #20
   4:	af00      	add	r7, sp, #0
   6:	6078      	str	r0, [r7, #4]
   8:	460b      	mov	r3, r1
   a:	70fb      	strb	r3, [r7, #3]
   c:	78fb      	ldrb	r3, [r7, #3]
   e:	2b00      	cmp	r3, #0
  10:	d014      	beq.n	3c <AESIntStatus+0x3c>
  12:	f640 0328 	movw	r3, #2088	; 0x828
  16:	f2c4 4303 	movt	r3, #17411	; 0x4403
  1a:	681b      	ldr	r3, [r3, #0]
  1c:	60fb      	str	r3, [r7, #12]
  1e:	687b      	ldr	r3, [r7, #4]
  20:	3390      	adds	r3, #144	; 0x90
  22:	681b      	ldr	r3, [r3, #0]
  24:	60bb      	str	r3, [r7, #8]
  26:	687b      	ldr	r3, [r7, #4]
  28:	338c      	adds	r3, #140	; 0x8c
  2a:	681a      	ldr	r2, [r3, #0]
  2c:	68bb      	ldr	r3, [r7, #8]
  2e:	401a      	ands	r2, r3
  30:	68fb      	ldr	r3, [r7, #12]
  32:	f003 030f 	and.w	r3, r3, #15
  36:	041b      	lsls	r3, r3, #16
  38:	4313      	orrs	r3, r2
  3a:	e00d      	b.n	58 <AESIntStatus+0x58>
  3c:	f640 0324 	movw	r3, #2084	; 0x824
  40:	f2c4 4303 	movt	r3, #17411	; 0x4403
  44:	681b      	ldr	r3, [r3, #0]
  46:	60fb      	str	r3, [r7, #12]
  48:	687b      	ldr	r3, [r7, #4]
  4a:	338c      	adds	r3, #140	; 0x8c
  4c:	681a      	ldr	r2, [r3, #0]
  4e:	68fb      	ldr	r3, [r7, #12]
  50:	f003 030f 	and.w	r3, r3, #15
  54:	041b      	lsls	r3, r3, #16
  56:	4313      	orrs	r3, r2
  58:	4618      	mov	r0, r3
  5a:	3714      	adds	r7, #20
  5c:	46bd      	mov	sp, r7
  5e:	f85d 7b04 	ldr.w	r7, [sp], #4
  62:	4770      	bx	lr

Disassembly of section .text.AESIntEnable:

00000000 <AESIntEnable>:
   0:	b480      	push	{r7}
   2:	b083      	sub	sp, #12
   4:	af00      	add	r7, sp, #0
   6:	6078      	str	r0, [r7, #4]
   8:	6039      	str	r1, [r7, #0]
   a:	f44f 6302 	mov.w	r3, #2080	; 0x820
   e:	f2c4 4303 	movt	r3, #17411	; 0x4403
  12:	f44f 6202 	mov.w	r2, #2080	; 0x820
  16:	f2c4 4203 	movt	r2, #17411	; 0x4403
  1a:	6811      	ldr	r1, [r2, #0]
  1c:	683a      	ldr	r2, [r7, #0]
  1e:	f402 2270 	and.w	r2, r2, #983040	; 0xf0000
  22:	0c12      	lsrs	r2, r2, #16
  24:	43d2      	mvns	r2, r2
  26:	400a      	ands	r2, r1
  28:	601a      	str	r2, [r3, #0]
  2a:	687b      	ldr	r3, [r7, #4]
  2c:	3390      	adds	r3, #144	; 0x90
  2e:	687a      	ldr	r2, [r7, #4]
  30:	3290      	adds	r2, #144	; 0x90
  32:	6811      	ldr	r1, [r2, #0]
  34:	683a      	ldr	r2, [r7, #0]
  36:	b292      	uxth	r2, r2
  38:	430a      	orrs	r2, r1
  3a:	601a      	str	r2, [r3, #0]
  3c:	370c      	adds	r7, #12
  3e:	46bd      	mov	sp, r7
  40:	f85d 7b04 	ldr.w	r7, [sp], #4
  44:	4770      	bx	lr
  46:	bf00      	nop

Disassembly of section .text.AESIntDisable:

00000000 <AESIntDisable>:
   0:	b480      	push	{r7}
   2:	b083      	sub	sp, #12
   4:	af00      	add	r7, sp, #0
   6:	6078      	str	r0, [r7, #4]
   8:	6039      	str	r1, [r7, #0]
   a:	f44f 6302 	mov.w	r3, #2080	; 0x820
   e:	f2c4 4303 	movt	r3, #17411	; 0x4403
  12:	f44f 6202 	mov.w	r2, #2080	; 0x820
  16:	f2c4 4203 	movt	r2, #17411	; 0x4403
  1a:	6811      	ldr	r1, [r2, #0]
  1c:	683a      	ldr	r2, [r7, #0]
  1e:	f402 2270 	and.w	r2, r2, #983040	; 0xf0000
  22:	0c12      	lsrs	r2, r2, #16
  24:	430a      	orrs	r2, r1
  26:	601a      	str	r2, [r3, #0]
  28:	687b      	ldr	r3, [r7, #4]
  2a:	3390      	adds	r3, #144	; 0x90
  2c:	687a      	ldr	r2, [r7, #4]
  2e:	3290      	adds	r2, #144	; 0x90
  30:	6811      	ldr	r1, [r2, #0]
  32:	683a      	ldr	r2, [r7, #0]
  34:	b292      	uxth	r2, r2
  36:	43d2      	mvns	r2, r2
  38:	400a      	ands	r2, r1
  3a:	601a      	str	r2, [r3, #0]
  3c:	370c      	adds	r7, #12
  3e:	46bd      	mov	sp, r7
  40:	f85d 7b04 	ldr.w	r7, [sp], #4
  44:	4770      	bx	lr
  46:	bf00      	nop

Disassembly of section .text.AESIntClear:

00000000 <AESIntClear>:
   0:	b480      	push	{r7}
   2:	b083      	sub	sp, #12
   4:	af00      	add	r7, sp, #0
   6:	6078      	str	r0, [r7, #4]
   8:	6039      	str	r1, [r7, #0]
   a:	f640 032c 	movw	r3, #2092	; 0x82c
   e:	f2c4 4303 	movt	r3, #17411	; 0x4403
  12:	683a      	ldr	r2, [r7, #0]
  14:	0c12      	lsrs	r2, r2, #16
  16:	f002 020f 	and.w	r2, r2, #15
  1a:	601a      	str	r2, [r3, #0]
  1c:	370c      	adds	r7, #12
  1e:	46bd      	mov	sp, r7
  20:	f85d 7b04 	ldr.w	r7, [sp], #4
  24:	4770      	bx	lr
  26:	bf00      	nop

Disassembly of section .text.AESIntRegister:

00000000 <AESIntRegister>:
   0:	b580      	push	{r7, lr}
   2:	b082      	sub	sp, #8
   4:	af00      	add	r7, sp, #0
   6:	6078      	str	r0, [r7, #4]
   8:	6039      	str	r1, [r7, #0]
   a:	20a7      	movs	r0, #167	; 0xa7
   c:	6839      	ldr	r1, [r7, #0]
   e:	f7ff fffe 	bl	0 <IntRegister>
  12:	20a7      	movs	r0, #167	; 0xa7
  14:	f7ff fffe 	bl	0 <IntEnable>
  18:	3708      	adds	r7, #8
  1a:	46bd      	mov	sp, r7
  1c:	bd80      	pop	{r7, pc}
  1e:	bf00      	nop

Disassembly of section .text.AESIntUnregister:

00000000 <AESIntUnregister>:
   0:	b580      	push	{r7, lr}
   2:	b082      	sub	sp, #8
   4:	af00      	add	r7, sp, #0
   6:	6078      	str	r0, [r7, #4]
   8:	20a7      	movs	r0, #167	; 0xa7
   a:	f7ff fffe 	bl	0 <IntDisable>
   e:	20a7      	movs	r0, #167	; 0xa7
  10:	f7ff fffe 	bl	0 <IntUnregister>
  14:	3708      	adds	r7, #8
  16:	46bd      	mov	sp, r7
  18:	bd80      	pop	{r7, pc}
  1a:	bf00      	nop

Disassembly of section .text.AESDMAEnable:

00000000 <AESDMAEnable>:
   0:	b480      	push	{r7}
   2:	b083      	sub	sp, #12
   4:	af00      	add	r7, sp, #0
   6:	6078      	str	r0, [r7, #4]
   8:	6039      	str	r1, [r7, #0]
   a:	687b      	ldr	r3, [r7, #4]
   c:	3384      	adds	r3, #132	; 0x84
   e:	687a      	ldr	r2, [r7, #4]
  10:	3284      	adds	r2, #132	; 0x84
  12:	6811      	ldr	r1, [r2, #0]
  14:	683a      	ldr	r2, [r7, #0]
  16:	430a      	orrs	r2, r1
  18:	601a      	str	r2, [r3, #0]
  1a:	370c      	adds	r7, #12
  1c:	46bd      	mov	sp, r7
  1e:	f85d 7b04 	ldr.w	r7, [sp], #4
  22:	4770      	bx	lr

Disassembly of section .text.AESDMADisable:

00000000 <AESDMADisable>:
   0:	b480      	push	{r7}
   2:	b083      	sub	sp, #12
   4:	af00      	add	r7, sp, #0
   6:	6078      	str	r0, [r7, #4]
   8:	6039      	str	r1, [r7, #0]
   a:	687b      	ldr	r3, [r7, #4]
   c:	3384      	adds	r3, #132	; 0x84
   e:	687a      	ldr	r2, [r7, #4]
  10:	3284      	adds	r2, #132	; 0x84
  12:	6811      	ldr	r1, [r2, #0]
  14:	683a      	ldr	r2, [r7, #0]
  16:	43d2      	mvns	r2, r2
  18:	400a      	ands	r2, r1
  1a:	601a      	str	r2, [r3, #0]
  1c:	370c      	adds	r7, #12
  1e:	46bd      	mov	sp, r7
  20:	f85d 7b04 	ldr.w	r7, [sp], #4
  24:	4770      	bx	lr
  26:	bf00      	nop

Disassembly of section .text.CameraReset:

00000000 <CameraReset>:
   0:	b480      	push	{r7}
   2:	b083      	sub	sp, #12
   4:	af00      	add	r7, sp, #0
   6:	6078      	str	r0, [r7, #4]
   8:	687b      	ldr	r3, [r7, #4]
   a:	3310      	adds	r3, #16
   c:	2202      	movs	r2, #2
   e:	601a      	str	r2, [r3, #0]
  10:	bf00      	nop
  12:	687b      	ldr	r3, [r7, #4]
  14:	3314      	adds	r3, #20
  16:	681b      	ldr	r3, [r3, #0]
  18:	f003 0301 	and.w	r3, r3, #1
  1c:	2b00      	cmp	r3, #0
  1e:	d0f8      	beq.n	12 <CameraReset+0x12>
  20:	370c      	adds	r7, #12
  22:	46bd      	mov	sp, r7
  24:	f85d 7b04 	ldr.w	r7, [sp], #4
  28:	4770      	bx	lr
  2a:	bf00      	nop

Disassembly of section .text.CameraParamsConfig:

00000000 <CameraParamsConfig>:
   0:	b480      	push	{r7}
   2:	b087      	sub	sp, #28
   4:	af00      	add	r7, sp, #0
   6:	60f8      	str	r0, [r7, #12]
   8:	60b9      	str	r1, [r7, #8]
   a:	607a      	str	r2, [r7, #4]
   c:	603b      	str	r3, [r7, #0]
   e:	68fb      	ldr	r3, [r7, #12]
  10:	3340      	adds	r3, #64	; 0x40
  12:	681b      	ldr	r3, [r3, #0]
  14:	617b      	str	r3, [r7, #20]
  16:	683a      	ldr	r2, [r7, #0]
  18:	68bb      	ldr	r3, [r7, #8]
  1a:	431a      	orrs	r2, r3
  1c:	687b      	ldr	r3, [r7, #4]
  1e:	4313      	orrs	r3, r2
  20:	603b      	str	r3, [r7, #0]
  22:	697b      	ldr	r3, [r7, #20]
  24:	f423 527c 	bic.w	r2, r3, #16128	; 0x3f00
  28:	683b      	ldr	r3, [r7, #0]
  2a:	4313      	orrs	r3, r2
  2c:	617b      	str	r3, [r7, #20]
  2e:	68fb      	ldr	r3, [r7, #12]
  30:	3340      	adds	r3, #64	; 0x40
  32:	697a      	ldr	r2, [r7, #20]
  34:	601a      	str	r2, [r3, #0]
  36:	371c      	adds	r7, #28
  38:	46bd      	mov	sp, r7
  3a:	f85d 7b04 	ldr.w	r7, [sp], #4
  3e:	4770      	bx	lr

Disassembly of section .text.CameraXClkConfig:

00000000 <CameraXClkConfig>:
   0:	b480      	push	{r7}
   2:	b087      	sub	sp, #28
   4:	af00      	add	r7, sp, #0
   6:	60f8      	str	r0, [r7, #12]
   8:	60b9      	str	r1, [r7, #8]
   a:	607a      	str	r2, [r7, #4]
   c:	68fb      	ldr	r3, [r7, #12]
   e:	3348      	adds	r3, #72	; 0x48
  10:	681b      	ldr	r3, [r3, #0]
  12:	617b      	str	r3, [r7, #20]
  14:	697b      	ldr	r3, [r7, #20]
  16:	f023 031f 	bic.w	r3, r3, #31
  1a:	617b      	str	r3, [r7, #20]
  1c:	68ba      	ldr	r2, [r7, #8]
  1e:	687b      	ldr	r3, [r7, #4]
  20:	fbb2 f3f3 	udiv	r3, r2, r3
  24:	613b      	str	r3, [r7, #16]
  26:	693b      	ldr	r3, [r7, #16]
  28:	2b1e      	cmp	r3, #30
  2a:	d900      	bls.n	2e <CameraXClkConfig+0x2e>
  2c:	e007      	b.n	3e <CameraXClkConfig+0x3e>
  2e:	697a      	ldr	r2, [r7, #20]
  30:	693b      	ldr	r3, [r7, #16]
  32:	4313      	orrs	r3, r2
  34:	617b      	str	r3, [r7, #20]
  36:	68fb      	ldr	r3, [r7, #12]
  38:	3348      	adds	r3, #72	; 0x48
  3a:	697a      	ldr	r2, [r7, #20]
  3c:	601a      	str	r2, [r3, #0]
  3e:	371c      	adds	r7, #28
  40:	46bd      	mov	sp, r7
  42:	f85d 7b04 	ldr.w	r7, [sp], #4
  46:	4770      	bx	lr

Disassembly of section .text.CameraXClkSet:

00000000 <CameraXClkSet>:
   0:	b480      	push	{r7}
   2:	b085      	sub	sp, #20
   4:	af00      	add	r7, sp, #0
   6:	6078      	str	r0, [r7, #4]
   8:	460b      	mov	r3, r1
   a:	70fb      	strb	r3, [r7, #3]
   c:	687b      	ldr	r3, [r7, #4]
   e:	3348      	adds	r3, #72	; 0x48
  10:	681b      	ldr	r3, [r3, #0]
  12:	f023 031f 	bic.w	r3, r3, #31
  16:	60fb      	str	r3, [r7, #12]
  18:	78fb      	ldrb	r3, [r7, #3]
  1a:	2b01      	cmp	r3, #1
  1c:	d002      	beq.n	24 <CameraXClkSet+0x24>
  1e:	2b02      	cmp	r3, #2
  20:	d005      	beq.n	2e <CameraXClkSet+0x2e>
  22:	e009      	b.n	38 <CameraXClkSet+0x38>
  24:	68fb      	ldr	r3, [r7, #12]
  26:	f043 0301 	orr.w	r3, r3, #1
  2a:	60fb      	str	r3, [r7, #12]
  2c:	e004      	b.n	38 <CameraXClkSet+0x38>
  2e:	68fb      	ldr	r3, [r7, #12]
  30:	f043 030f 	orr.w	r3, r3, #15
  34:	60fb      	str	r3, [r7, #12]
  36:	bf00      	nop
  38:	687b      	ldr	r3, [r7, #4]
  3a:	3348      	adds	r3, #72	; 0x48
  3c:	68fa      	ldr	r2, [r7, #12]
  3e:	601a      	str	r2, [r3, #0]
  40:	3714      	adds	r7, #20
  42:	46bd      	mov	sp, r7
  44:	f85d 7b04 	ldr.w	r7, [sp], #4
  48:	4770      	bx	lr
  4a:	bf00      	nop

Disassembly of section .text.CameraDMAEnable:

00000000 <CameraDMAEnable>:
   0:	b480      	push	{r7}
   2:	b083      	sub	sp, #12
   4:	af00      	add	r7, sp, #0
   6:	6078      	str	r0, [r7, #4]
   8:	687b      	ldr	r3, [r7, #4]
   a:	3344      	adds	r3, #68	; 0x44
   c:	687a      	ldr	r2, [r7, #4]
   e:	3244      	adds	r2, #68	; 0x44
  10:	6812      	ldr	r2, [r2, #0]
  12:	f442 7280 	orr.w	r2, r2, #256	; 0x100
  16:	601a      	str	r2, [r3, #0]
  18:	370c      	adds	r7, #12
  1a:	46bd      	mov	sp, r7
  1c:	f85d 7b04 	ldr.w	r7, [sp], #4
  20:	4770      	bx	lr
  22:	bf00      	nop

Disassembly of section .text.CameraDMADisable:

00000000 <CameraDMADisable>:
   0:	b480      	push	{r7}
   2:	b083      	sub	sp, #12
   4:	af00      	add	r7, sp, #0
   6:	6078      	str	r0, [r7, #4]
   8:	687b      	ldr	r3, [r7, #4]
   a:	3344      	adds	r3, #68	; 0x44
   c:	687a      	ldr	r2, [r7, #4]
   e:	3244      	adds	r2, #68	; 0x44
  10:	6812      	ldr	r2, [r2, #0]
  12:	f422 7280 	bic.w	r2, r2, #256	; 0x100
  16:	601a      	str	r2, [r3, #0]
  18:	370c      	adds	r7, #12
  1a:	46bd      	mov	sp, r7
  1c:	f85d 7b04 	ldr.w	r7, [sp], #4
  20:	4770      	bx	lr
  22:	bf00      	nop

Disassembly of section .text.CameraThresholdSet:

00000000 <CameraThresholdSet>:
   0:	b480      	push	{r7}
   2:	b083      	sub	sp, #12
   4:	af00      	add	r7, sp, #0
   6:	6078      	str	r0, [r7, #4]
   8:	6039      	str	r1, [r7, #0]
   a:	687b      	ldr	r3, [r7, #4]
   c:	3344      	adds	r3, #68	; 0x44
   e:	687a      	ldr	r2, [r7, #4]
  10:	3244      	adds	r2, #68	; 0x44
  12:	6812      	ldr	r2, [r2, #0]
  14:	f022 027f 	bic.w	r2, r2, #127	; 0x7f
  18:	601a      	str	r2, [r3, #0]
  1a:	687b      	ldr	r3, [r7, #4]
  1c:	3344      	adds	r3, #68	; 0x44
  1e:	687a      	ldr	r2, [r7, #4]
  20:	3244      	adds	r2, #68	; 0x44
  22:	6811      	ldr	r1, [r2, #0]
  24:	683a      	ldr	r2, [r7, #0]
  26:	3a01      	subs	r2, #1
  28:	430a      	orrs	r2, r1
  2a:	601a      	str	r2, [r3, #0]
  2c:	370c      	adds	r7, #12
  2e:	46bd      	mov	sp, r7
  30:	f85d 7b04 	ldr.w	r7, [sp], #4
  34:	4770      	bx	lr
  36:	bf00      	nop

Disassembly of section .text.CameraIntRegister:

00000000 <CameraIntRegister>:
   0:	b580      	push	{r7, lr}
   2:	b082      	sub	sp, #8
   4:	af00      	add	r7, sp, #0
   6:	6078      	str	r0, [r7, #4]
   8:	6039      	str	r1, [r7, #0]
   a:	20b3      	movs	r0, #179	; 0xb3
   c:	6839      	ldr	r1, [r7, #0]
   e:	f7ff fffe 	bl	0 <IntRegister>
  12:	20b3      	movs	r0, #179	; 0xb3
  14:	f7ff fffe 	bl	0 <IntEnable>
  18:	3708      	adds	r7, #8
  1a:	46bd      	mov	sp, r7
  1c:	bd80      	pop	{r7, pc}
  1e:	bf00      	nop

Disassembly of section .text.CameraIntUnregister:

00000000 <CameraIntUnregister>:
   0:	b580      	push	{r7, lr}
   2:	b082      	sub	sp, #8
   4:	af00      	add	r7, sp, #0
   6:	6078      	str	r0, [r7, #4]
   8:	20b3      	movs	r0, #179	; 0xb3
   a:	f7ff fffe 	bl	0 <IntDisable>
   e:	20b3      	movs	r0, #179	; 0xb3
  10:	f7ff fffe 	bl	0 <IntUnregister>
  14:	3708      	adds	r7, #8
  16:	46bd      	mov	sp, r7
  18:	bd80      	pop	{r7, pc}
  1a:	bf00      	nop

Disassembly of section .text.CameraIntEnable:

00000000 <CameraIntEnable>:
   0:	b480      	push	{r7}
   2:	b083      	sub	sp, #12
   4:	af00      	add	r7, sp, #0
   6:	6078      	str	r0, [r7, #4]
   8:	6039      	str	r1, [r7, #0]
   a:	683b      	ldr	r3, [r7, #0]
   c:	2b00      	cmp	r3, #0
   e:	da06      	bge.n	1e <CameraIntEnable+0x1e>
  10:	f246 0394 	movw	r3, #24724	; 0x6094
  14:	f2c4 4302 	movt	r3, #17410	; 0x4402
  18:	f44f 7280 	mov.w	r2, #256	; 0x100
  1c:	601a      	str	r2, [r3, #0]
  1e:	687b      	ldr	r3, [r7, #4]
  20:	331c      	adds	r3, #28
  22:	687a      	ldr	r2, [r7, #4]
  24:	321c      	adds	r2, #28
  26:	6811      	ldr	r1, [r2, #0]
  28:	683a      	ldr	r2, [r7, #0]
  2a:	430a      	orrs	r2, r1
  2c:	601a      	str	r2, [r3, #0]
  2e:	370c      	adds	r7, #12
  30:	46bd      	mov	sp, r7
  32:	f85d 7b04 	ldr.w	r7, [sp], #4
  36:	4770      	bx	lr

Disassembly of section .text.CameraIntDisable:

00000000 <CameraIntDisable>:
   0:	b480      	push	{r7}
   2:	b083      	sub	sp, #12
   4:	af00      	add	r7, sp, #0
   6:	6078      	str	r0, [r7, #4]
   8:	6039      	str	r1, [r7, #0]
   a:	683b      	ldr	r3, [r7, #0]
   c:	2b00      	cmp	r3, #0
   e:	da06      	bge.n	1e <CameraIntDisable+0x1e>
  10:	f246 0390 	movw	r3, #24720	; 0x6090
  14:	f2c4 4302 	movt	r3, #17410	; 0x4402
  18:	f44f 7280 	mov.w	r2, #256	; 0x100
  1c:	601a      	str	r2, [r3, #0]
  1e:	687b      	ldr	r3, [r7, #4]
  20:	331c      	adds	r3, #28
  22:	687a      	ldr	r2, [r7, #4]
  24:	321c      	adds	r2, #28
  26:	6811      	ldr	r1, [r2, #0]
  28:	683a      	ldr	r2, [r7, #0]
  2a:	43d2      	mvns	r2, r2
  2c:	400a      	ands	r2, r1
  2e:	601a      	str	r2, [r3, #0]
  30:	370c      	adds	r7, #12
  32:	46bd      	mov	sp, r7
  34:	f85d 7b04 	ldr.w	r7, [sp], #4
  38:	4770      	bx	lr
  3a:	bf00      	nop

Disassembly of section .text.CameraIntStatus:

00000000 <CameraIntStatus>:
   0:	b480      	push	{r7}
   2:	b085      	sub	sp, #20
   4:	af00      	add	r7, sp, #0
   6:	6078      	str	r0, [r7, #4]
   8:	687b      	ldr	r3, [r7, #4]
   a:	3318      	adds	r3, #24
   c:	681b      	ldr	r3, [r3, #0]
   e:	60fb      	str	r3, [r7, #12]
  10:	f246 03a0 	movw	r3, #24736	; 0x60a0
  14:	f2c4 4302 	movt	r3, #17410	; 0x4402
  18:	681b      	ldr	r3, [r3, #0]
  1a:	f403 7380 	and.w	r3, r3, #256	; 0x100
  1e:	2b00      	cmp	r3, #0
  20:	d003      	beq.n	2a <CameraIntStatus+0x2a>
  22:	68fb      	ldr	r3, [r7, #12]
  24:	f043 4300 	orr.w	r3, r3, #2147483648	; 0x80000000
  28:	60fb      	str	r3, [r7, #12]
  2a:	68fb      	ldr	r3, [r7, #12]
  2c:	4618      	mov	r0, r3
  2e:	3714      	adds	r7, #20
  30:	46bd      	mov	sp, r7
  32:	f85d 7b04 	ldr.w	r7, [sp], #4
  36:	4770      	bx	lr

Disassembly of section .text.CameraIntClear:

00000000 <CameraIntClear>:
   0:	b480      	push	{r7}
   2:	b083      	sub	sp, #12
   4:	af00      	add	r7, sp, #0
   6:	6078      	str	r0, [r7, #4]
   8:	6039      	str	r1, [r7, #0]
   a:	683b      	ldr	r3, [r7, #0]
   c:	2b00      	cmp	r3, #0
   e:	da06      	bge.n	1e <CameraIntClear+0x1e>
  10:	f246 039c 	movw	r3, #24732	; 0x609c
  14:	f2c4 4302 	movt	r3, #17410	; 0x4402
  18:	f44f 7280 	mov.w	r2, #256	; 0x100
  1c:	601a      	str	r2, [r3, #0]
  1e:	687b      	ldr	r3, [r7, #4]
  20:	3318      	adds	r3, #24
  22:	683a      	ldr	r2, [r7, #0]
  24:	601a      	str	r2, [r3, #0]
  26:	370c      	adds	r7, #12
  28:	46bd      	mov	sp, r7
  2a:	f85d 7b04 	ldr.w	r7, [sp], #4
  2e:	4770      	bx	lr

Disassembly of section .text.CameraCaptureStart:

00000000 <CameraCaptureStart>:
   0:	b480      	push	{r7}
   2:	b083      	sub	sp, #12
   4:	af00      	add	r7, sp, #0
   6:	6078      	str	r0, [r7, #4]
   8:	687b      	ldr	r3, [r7, #4]
   a:	3340      	adds	r3, #64	; 0x40
   c:	687a      	ldr	r2, [r7, #4]
   e:	3240      	adds	r2, #64	; 0x40
  10:	6812      	ldr	r2, [r2, #0]
  12:	f022 020f 	bic.w	r2, r2, #15
  16:	601a      	str	r2, [r3, #0]
  18:	687b      	ldr	r3, [r7, #4]
  1a:	3340      	adds	r3, #64	; 0x40
  1c:	687a      	ldr	r2, [r7, #4]
  1e:	3240      	adds	r2, #64	; 0x40
  20:	6812      	ldr	r2, [r2, #0]
  22:	f442 3280 	orr.w	r2, r2, #65536	; 0x10000
  26:	601a      	str	r2, [r3, #0]
  28:	370c      	adds	r7, #12
  2a:	46bd      	mov	sp, r7
  2c:	f85d 7b04 	ldr.w	r7, [sp], #4
  30:	4770      	bx	lr
  32:	bf00      	nop

Disassembly of section .text.CameraCaptureStop:

00000000 <CameraCaptureStop>:
   0:	b480      	push	{r7}
   2:	b083      	sub	sp, #12
   4:	af00      	add	r7, sp, #0
   6:	6078      	str	r0, [r7, #4]
   8:	460b      	mov	r3, r1
   a:	70fb      	strb	r3, [r7, #3]
   c:	78fb      	ldrb	r3, [r7, #3]
   e:	2b00      	cmp	r3, #0
  10:	d008      	beq.n	24 <CameraCaptureStop+0x24>
  12:	687b      	ldr	r3, [r7, #4]
  14:	3340      	adds	r3, #64	; 0x40
  16:	687a      	ldr	r2, [r7, #4]
  18:	3240      	adds	r2, #64	; 0x40
  1a:	6812      	ldr	r2, [r2, #0]
  1c:	f422 3200 	bic.w	r2, r2, #131072	; 0x20000
  20:	601a      	str	r2, [r3, #0]
  22:	e007      	b.n	34 <CameraCaptureStop+0x34>
  24:	687b      	ldr	r3, [r7, #4]
  26:	3340      	adds	r3, #64	; 0x40
  28:	687a      	ldr	r2, [r7, #4]
  2a:	3240      	adds	r2, #64	; 0x40
  2c:	6812      	ldr	r2, [r2, #0]
  2e:	f442 3200 	orr.w	r2, r2, #131072	; 0x20000
  32:	601a      	str	r2, [r3, #0]
  34:	687b      	ldr	r3, [r7, #4]
  36:	3340      	adds	r3, #64	; 0x40
  38:	687a      	ldr	r2, [r7, #4]
  3a:	3240      	adds	r2, #64	; 0x40
  3c:	6812      	ldr	r2, [r2, #0]
  3e:	f422 3280 	bic.w	r2, r2, #65536	; 0x10000
  42:	601a      	str	r2, [r3, #0]
  44:	370c      	adds	r7, #12
  46:	46bd      	mov	sp, r7
  48:	f85d 7b04 	ldr.w	r7, [sp], #4
  4c:	4770      	bx	lr
  4e:	bf00      	nop

Disassembly of section .text.CameraBufferRead:

00000000 <CameraBufferRead>:
   0:	b480      	push	{r7}
   2:	b087      	sub	sp, #28
   4:	af00      	add	r7, sp, #0
   6:	60f8      	str	r0, [r7, #12]
   8:	60b9      	str	r1, [r7, #8]
   a:	4613      	mov	r3, r2
   c:	71fb      	strb	r3, [r7, #7]
   e:	f44f 4301 	mov.w	r3, #33024	; 0x8100
  12:	f2c4 4301 	movt	r3, #17409	; 0x4401
  16:	613b      	str	r3, [r7, #16]
  18:	2300      	movs	r3, #0
  1a:	75fb      	strb	r3, [r7, #23]
  1c:	e00b      	b.n	36 <CameraBufferRead+0x36>
  1e:	7dfb      	ldrb	r3, [r7, #23]
  20:	009b      	lsls	r3, r3, #2
  22:	68ba      	ldr	r2, [r7, #8]
  24:	4413      	add	r3, r2
  26:	7dfa      	ldrb	r2, [r7, #23]
  28:	6939      	ldr	r1, [r7, #16]
  2a:	440a      	add	r2, r1
  2c:	7812      	ldrb	r2, [r2, #0]
  2e:	601a      	str	r2, [r3, #0]
  30:	7dfb      	ldrb	r3, [r7, #23]
  32:	3301      	adds	r3, #1
  34:	75fb      	strb	r3, [r7, #23]
  36:	7dfa      	ldrb	r2, [r7, #23]
  38:	79fb      	ldrb	r3, [r7, #7]
  3a:	429a      	cmp	r2, r3
  3c:	d3ef      	bcc.n	1e <CameraBufferRead+0x1e>
  3e:	371c      	adds	r7, #28
  40:	46bd      	mov	sp, r7
  42:	f85d 7b04 	ldr.w	r7, [sp], #4
  46:	4770      	bx	lr

Disassembly of section .text.CPUcpsid:

00000000 <CPUcpsid>:
   0:	f3ef 8010 	mrs	r0, PRIMASK
   4:	b672      	cpsid	i
   6:	f3bf 8f4f 	dsb	sy
   a:	f3bf 8f6f 	isb	sy
   e:	4770      	bx	lr
  10:	461c      	mov	r4, r3
  12:	4623      	mov	r3, r4
  14:	4618      	mov	r0, r3
  16:	bf00      	nop

Disassembly of section .text.CPUprimask:

00000000 <CPUprimask>:
   0:	f3ef 8010 	mrs	r0, PRIMASK
   4:	4770      	bx	lr
   6:	461c      	mov	r4, r3
   8:	4623      	mov	r3, r4
   a:	4618      	mov	r0, r3

Disassembly of section .text.CPUcpsie:

00000000 <CPUcpsie>:
   0:	f3ef 8010 	mrs	r0, PRIMASK
   4:	b662      	cpsie	i
   6:	f3bf 8f4f 	dsb	sy
   a:	f3bf 8f6f 	isb	sy
   e:	4770      	bx	lr
  10:	461c      	mov	r4, r3
  12:	4623      	mov	r3, r4
  14:	4618      	mov	r0, r3
  16:	bf00      	nop

Disassembly of section .text.CPUwfi:

00000000 <CPUwfi>:
   0:	f3bf 8f4f 	dsb	sy
   4:	f3bf 8f6f 	isb	sy
   8:	bf30      	wfi
   a:	4770      	bx	lr

Disassembly of section .text.CPUbasepriSet:

00000000 <CPUbasepriSet>:
   0:	f380 8811 	msr	BASEPRI, r0
   4:	f3bf 8f4f 	dsb	sy
   8:	f3bf 8f6f 	isb	sy
   c:	4770      	bx	lr
   e:	bf00      	nop

Disassembly of section .text.CPUbasepriGet:

00000000 <CPUbasepriGet>:
   0:	f3ef 8011 	mrs	r0, BASEPRI
   4:	4770      	bx	lr
   6:	461c      	mov	r4, r3
   8:	4623      	mov	r3, r4
   a:	4618      	mov	r0, r3

Disassembly of section .text.CRCConfigSet:

00000000 <CRCConfigSet>:
   0:	b480      	push	{r7}
   2:	b083      	sub	sp, #12
   4:	af00      	add	r7, sp, #0
   6:	6078      	str	r0, [r7, #4]
   8:	6039      	str	r1, [r7, #0]
   a:	687b      	ldr	r3, [r7, #4]
   c:	f503 6340 	add.w	r3, r3, #3072	; 0xc00
  10:	683a      	ldr	r2, [r7, #0]
  12:	601a      	str	r2, [r3, #0]
  14:	370c      	adds	r7, #12
  16:	46bd      	mov	sp, r7
  18:	f85d 7b04 	ldr.w	r7, [sp], #4
  1c:	4770      	bx	lr
  1e:	bf00      	nop

Disassembly of section .text.CRCSeedSet:

00000000 <CRCSeedSet>:
   0:	b480      	push	{r7}
   2:	b083      	sub	sp, #12
   4:	af00      	add	r7, sp, #0
   6:	6078      	str	r0, [r7, #4]
   8:	6039      	str	r1, [r7, #0]
   a:	687b      	ldr	r3, [r7, #4]
   c:	f503 6341 	add.w	r3, r3, #3088	; 0xc10
  10:	683a      	ldr	r2, [r7, #0]
  12:	601a      	str	r2, [r3, #0]
  14:	370c      	adds	r7, #12
  16:	46bd      	mov	sp, r7
  18:	f85d 7b04 	ldr.w	r7, [sp], #4
  1c:	4770      	bx	lr
  1e:	bf00      	nop

Disassembly of section .text.CRCDataWrite:

00000000 <CRCDataWrite>:
   0:	b480      	push	{r7}
   2:	b083      	sub	sp, #12
   4:	af00      	add	r7, sp, #0
   6:	6078      	str	r0, [r7, #4]
   8:	6039      	str	r1, [r7, #0]
   a:	f640 4314 	movw	r3, #3092	; 0xc14
   e:	f2c4 4303 	movt	r3, #17411	; 0x4403
  12:	683a      	ldr	r2, [r7, #0]
  14:	601a      	str	r2, [r3, #0]
  16:	370c      	adds	r7, #12
  18:	46bd      	mov	sp, r7
  1a:	f85d 7b04 	ldr.w	r7, [sp], #4
  1e:	4770      	bx	lr

Disassembly of section .text.CRCResultRead:

00000000 <CRCResultRead>:
   0:	b480      	push	{r7}
   2:	b083      	sub	sp, #12
   4:	af00      	add	r7, sp, #0
   6:	6078      	str	r0, [r7, #4]
   8:	f640 4318 	movw	r3, #3096	; 0xc18
   c:	f2c4 4303 	movt	r3, #17411	; 0x4403
  10:	681b      	ldr	r3, [r3, #0]
  12:	4618      	mov	r0, r3
  14:	370c      	adds	r7, #12
  16:	46bd      	mov	sp, r7
  18:	f85d 7b04 	ldr.w	r7, [sp], #4
  1c:	4770      	bx	lr
  1e:	bf00      	nop

Disassembly of section .text.CRCDataProcess:

00000000 <CRCDataProcess>:
   0:	b580      	push	{r7, lr}
   2:	b086      	sub	sp, #24
   4:	af00      	add	r7, sp, #0
   6:	60f8      	str	r0, [r7, #12]
   8:	60b9      	str	r1, [r7, #8]
   a:	607a      	str	r2, [r7, #4]
   c:	603b      	str	r3, [r7, #0]
   e:	683b      	ldr	r3, [r7, #0]
  10:	f403 5380 	and.w	r3, r3, #4096	; 0x1000
  14:	2b00      	cmp	r3, #0
  16:	d011      	beq.n	3c <CRCDataProcess+0x3c>
  18:	68bb      	ldr	r3, [r7, #8]
  1a:	617b      	str	r3, [r7, #20]
  1c:	e008      	b.n	30 <CRCDataProcess+0x30>
  1e:	68fb      	ldr	r3, [r7, #12]
  20:	f603 4314 	addw	r3, r3, #3092	; 0xc14
  24:	461a      	mov	r2, r3
  26:	697b      	ldr	r3, [r7, #20]
  28:	1c59      	adds	r1, r3, #1
  2a:	6179      	str	r1, [r7, #20]
  2c:	781b      	ldrb	r3, [r3, #0]
  2e:	6013      	str	r3, [r2, #0]
  30:	687b      	ldr	r3, [r7, #4]
  32:	1e5a      	subs	r2, r3, #1
  34:	607a      	str	r2, [r7, #4]
  36:	2b00      	cmp	r3, #0
  38:	d1f1      	bne.n	1e <CRCDataProcess+0x1e>
  3a:	e010      	b.n	5e <CRCDataProcess+0x5e>
  3c:	68bb      	ldr	r3, [r7, #8]
  3e:	613b      	str	r3, [r7, #16]
  40:	e008      	b.n	54 <CRCDataProcess+0x54>
  42:	68fb      	ldr	r3, [r7, #12]
  44:	f603 4314 	addw	r3, r3, #3092	; 0xc14
  48:	461a      	mov	r2, r3
  4a:	693b      	ldr	r3, [r7, #16]
  4c:	1d19      	adds	r1, r3, #4
  4e:	6139      	str	r1, [r7, #16]
  50:	681b      	ldr	r3, [r3, #0]
  52:	6013      	str	r3, [r2, #0]
  54:	687b      	ldr	r3, [r7, #4]
  56:	1e5a      	subs	r2, r3, #1
  58:	607a      	str	r2, [r7, #4]
  5a:	2b00      	cmp	r3, #0
  5c:	d1f1      	bne.n	42 <CRCDataProcess+0x42>
  5e:	68f8      	ldr	r0, [r7, #12]
  60:	f7ff fffe 	bl	0 <CRCDataProcess>
  64:	4603      	mov	r3, r0
  66:	4618      	mov	r0, r3
  68:	3718      	adds	r7, #24
  6a:	46bd      	mov	sp, r7
  6c:	bd80      	pop	{r7, pc}
  6e:	bf00      	nop

Disassembly of section .text.DESConfigSet:

00000000 <DESConfigSet>:
   0:	b480      	push	{r7}
   2:	b083      	sub	sp, #12
   4:	af00      	add	r7, sp, #0
   6:	6078      	str	r0, [r7, #4]
   8:	6039      	str	r1, [r7, #0]
   a:	687b      	ldr	r3, [r7, #4]
   c:	3320      	adds	r3, #32
   e:	681b      	ldr	r3, [r3, #0]
  10:	f003 4300 	and.w	r3, r3, #2147483648	; 0x80000000
  14:	683a      	ldr	r2, [r7, #0]
  16:	4313      	orrs	r3, r2
  18:	603b      	str	r3, [r7, #0]
  1a:	687b      	ldr	r3, [r7, #4]
  1c:	3320      	adds	r3, #32
  1e:	683a      	ldr	r2, [r7, #0]
  20:	601a      	str	r2, [r3, #0]
  22:	370c      	adds	r7, #12
  24:	46bd      	mov	sp, r7
  26:	f85d 7b04 	ldr.w	r7, [sp], #4
  2a:	4770      	bx	lr

Disassembly of section .text.DESKeySet:

00000000 <DESKeySet>:
   0:	b480      	push	{r7}
   2:	b083      	sub	sp, #12
   4:	af00      	add	r7, sp, #0
   6:	6078      	str	r0, [r7, #4]
   8:	6039      	str	r1, [r7, #0]
   a:	687b      	ldr	r3, [r7, #4]
   c:	3310      	adds	r3, #16
   e:	683a      	ldr	r2, [r7, #0]
  10:	6812      	ldr	r2, [r2, #0]
  12:	601a      	str	r2, [r3, #0]
  14:	687b      	ldr	r3, [r7, #4]
  16:	3314      	adds	r3, #20
  18:	683a      	ldr	r2, [r7, #0]
  1a:	6852      	ldr	r2, [r2, #4]
  1c:	601a      	str	r2, [r3, #0]
  1e:	687b      	ldr	r3, [r7, #4]
  20:	3320      	adds	r3, #32
  22:	681b      	ldr	r3, [r3, #0]
  24:	f003 0308 	and.w	r3, r3, #8
  28:	2b00      	cmp	r3, #0
  2a:	d012      	beq.n	52 <DESKeySet+0x52>
  2c:	687b      	ldr	r3, [r7, #4]
  2e:	3308      	adds	r3, #8
  30:	683a      	ldr	r2, [r7, #0]
  32:	6892      	ldr	r2, [r2, #8]
  34:	601a      	str	r2, [r3, #0]
  36:	687b      	ldr	r3, [r7, #4]
  38:	330c      	adds	r3, #12
  3a:	683a      	ldr	r2, [r7, #0]
  3c:	68d2      	ldr	r2, [r2, #12]
  3e:	601a      	str	r2, [r3, #0]
  40:	687b      	ldr	r3, [r7, #4]
  42:	683a      	ldr	r2, [r7, #0]
  44:	6912      	ldr	r2, [r2, #16]
  46:	601a      	str	r2, [r3, #0]
  48:	687b      	ldr	r3, [r7, #4]
  4a:	3304      	adds	r3, #4
  4c:	683a      	ldr	r2, [r7, #0]
  4e:	6952      	ldr	r2, [r2, #20]
  50:	601a      	str	r2, [r3, #0]
  52:	370c      	adds	r7, #12
  54:	46bd      	mov	sp, r7
  56:	f85d 7b04 	ldr.w	r7, [sp], #4
  5a:	4770      	bx	lr

Disassembly of section .text.DESIVSet:

00000000 <DESIVSet>:
   0:	b480      	push	{r7}
   2:	b083      	sub	sp, #12
   4:	af00      	add	r7, sp, #0
   6:	6078      	str	r0, [r7, #4]
   8:	6039      	str	r1, [r7, #0]
   a:	687b      	ldr	r3, [r7, #4]
   c:	3320      	adds	r3, #32
   e:	681b      	ldr	r3, [r3, #0]
  10:	2b00      	cmp	r3, #0
  12:	db01      	blt.n	18 <DESIVSet+0x18>
  14:	2300      	movs	r3, #0
  16:	e00a      	b.n	2e <DESIVSet+0x2e>
  18:	687b      	ldr	r3, [r7, #4]
  1a:	3318      	adds	r3, #24
  1c:	683a      	ldr	r2, [r7, #0]
  1e:	6812      	ldr	r2, [r2, #0]
  20:	601a      	str	r2, [r3, #0]
  22:	687b      	ldr	r3, [r7, #4]
  24:	331c      	adds	r3, #28
  26:	683a      	ldr	r2, [r7, #0]
  28:	6852      	ldr	r2, [r2, #4]
  2a:	601a      	str	r2, [r3, #0]
  2c:	2301      	movs	r3, #1
  2e:	4618      	mov	r0, r3
  30:	370c      	adds	r7, #12
  32:	46bd      	mov	sp, r7
  34:	f85d 7b04 	ldr.w	r7, [sp], #4
  38:	4770      	bx	lr
  3a:	bf00      	nop

Disassembly of section .text.DESDataLengthSet:

00000000 <DESDataLengthSet>:
   0:	b480      	push	{r7}
   2:	b083      	sub	sp, #12
   4:	af00      	add	r7, sp, #0
   6:	6078      	str	r0, [r7, #4]
   8:	6039      	str	r1, [r7, #0]
   a:	687b      	ldr	r3, [r7, #4]
   c:	3324      	adds	r3, #36	; 0x24
   e:	683a      	ldr	r2, [r7, #0]
  10:	601a      	str	r2, [r3, #0]
  12:	370c      	adds	r7, #12
  14:	46bd      	mov	sp, r7
  16:	f85d 7b04 	ldr.w	r7, [sp], #4
  1a:	4770      	bx	lr

Disassembly of section .text.DESDataReadNonBlocking:

00000000 <DESDataReadNonBlocking>:
   0:	b480      	push	{r7}
   2:	b089      	sub	sp, #36	; 0x24
   4:	af00      	add	r7, sp, #0
   6:	60f8      	str	r0, [r7, #12]
   8:	60b9      	str	r1, [r7, #8]
   a:	4613      	mov	r3, r2
   c:	71fb      	strb	r3, [r7, #7]
   e:	79fb      	ldrb	r3, [r7, #7]
  10:	2b00      	cmp	r3, #0
  12:	d002      	beq.n	1a <DESDataReadNonBlocking+0x1a>
  14:	79fb      	ldrb	r3, [r7, #7]
  16:	2b08      	cmp	r3, #8
  18:	d901      	bls.n	1e <DESDataReadNonBlocking+0x1e>
  1a:	2300      	movs	r3, #0
  1c:	e02a      	b.n	74 <DESDataReadNonBlocking+0x74>
  1e:	68fb      	ldr	r3, [r7, #12]
  20:	3320      	adds	r3, #32
  22:	681b      	ldr	r3, [r3, #0]
  24:	f003 0301 	and.w	r3, r3, #1
  28:	2b00      	cmp	r3, #0
  2a:	d101      	bne.n	30 <DESDataReadNonBlocking+0x30>
  2c:	2300      	movs	r3, #0
  2e:	e021      	b.n	74 <DESDataReadNonBlocking+0x74>
  30:	f249 0328 	movw	r3, #36904	; 0x9028
  34:	f2c4 4303 	movt	r3, #17411	; 0x4403
  38:	681b      	ldr	r3, [r3, #0]
  3a:	613b      	str	r3, [r7, #16]
  3c:	f249 032c 	movw	r3, #36908	; 0x902c
  40:	f2c4 4303 	movt	r3, #17411	; 0x4403
  44:	681b      	ldr	r3, [r3, #0]
  46:	617b      	str	r3, [r7, #20]
  48:	f107 0310 	add.w	r3, r7, #16
  4c:	61bb      	str	r3, [r7, #24]
  4e:	2300      	movs	r3, #0
  50:	77fb      	strb	r3, [r7, #31]
  52:	e00a      	b.n	6a <DESDataReadNonBlocking+0x6a>
  54:	7ffb      	ldrb	r3, [r7, #31]
  56:	68ba      	ldr	r2, [r7, #8]
  58:	4413      	add	r3, r2
  5a:	7ffa      	ldrb	r2, [r7, #31]
  5c:	69b9      	ldr	r1, [r7, #24]
  5e:	440a      	add	r2, r1
  60:	7812      	ldrb	r2, [r2, #0]
  62:	701a      	strb	r2, [r3, #0]
  64:	7ffb      	ldrb	r3, [r7, #31]
  66:	3301      	adds	r3, #1
  68:	77fb      	strb	r3, [r7, #31]
  6a:	7ffa      	ldrb	r2, [r7, #31]
  6c:	79fb      	ldrb	r3, [r7, #7]
  6e:	429a      	cmp	r2, r3
  70:	d3f0      	bcc.n	54 <DESDataReadNonBlocking+0x54>
  72:	2301      	movs	r3, #1
  74:	4618      	mov	r0, r3
  76:	3724      	adds	r7, #36	; 0x24
  78:	46bd      	mov	sp, r7
  7a:	f85d 7b04 	ldr.w	r7, [sp], #4
  7e:	4770      	bx	lr

Disassembly of section .text.DESDataRead:

00000000 <DESDataRead>:
   0:	b480      	push	{r7}
   2:	b089      	sub	sp, #36	; 0x24
   4:	af00      	add	r7, sp, #0
   6:	60f8      	str	r0, [r7, #12]
   8:	60b9      	str	r1, [r7, #8]
   a:	4613      	mov	r3, r2
   c:	71fb      	strb	r3, [r7, #7]
   e:	79fb      	ldrb	r3, [r7, #7]
  10:	2b00      	cmp	r3, #0
  12:	d002      	beq.n	1a <DESDataRead+0x1a>
  14:	79fb      	ldrb	r3, [r7, #7]
  16:	2b08      	cmp	r3, #8
  18:	d900      	bls.n	1c <DESDataRead+0x1c>
  1a:	e028      	b.n	6e <DESDataRead+0x6e>
  1c:	bf00      	nop
  1e:	68fb      	ldr	r3, [r7, #12]
  20:	3320      	adds	r3, #32
  22:	681b      	ldr	r3, [r3, #0]
  24:	f003 0301 	and.w	r3, r3, #1
  28:	2b00      	cmp	r3, #0
  2a:	d0f8      	beq.n	1e <DESDataRead+0x1e>
  2c:	f249 0328 	movw	r3, #36904	; 0x9028
  30:	f2c4 4303 	movt	r3, #17411	; 0x4403
  34:	681b      	ldr	r3, [r3, #0]
  36:	613b      	str	r3, [r7, #16]
  38:	f249 032c 	movw	r3, #36908	; 0x902c
  3c:	f2c4 4303 	movt	r3, #17411	; 0x4403
  40:	681b      	ldr	r3, [r3, #0]
  42:	617b      	str	r3, [r7, #20]
  44:	f107 0310 	add.w	r3, r7, #16
  48:	61bb      	str	r3, [r7, #24]
  4a:	2300      	movs	r3, #0
  4c:	77fb      	strb	r3, [r7, #31]
  4e:	e00a      	b.n	66 <DESDataRead+0x66>
  50:	7ffb      	ldrb	r3, [r7, #31]
  52:	68ba      	ldr	r2, [r7, #8]
  54:	4413      	add	r3, r2
  56:	7ffa      	ldrb	r2, [r7, #31]
  58:	69b9      	ldr	r1, [r7, #24]
  5a:	440a      	add	r2, r1
  5c:	7812      	ldrb	r2, [r2, #0]
  5e:	701a      	strb	r2, [r3, #0]
  60:	7ffb      	ldrb	r3, [r7, #31]
  62:	3301      	adds	r3, #1
  64:	77fb      	strb	r3, [r7, #31]
  66:	7ffa      	ldrb	r2, [r7, #31]
  68:	79fb      	ldrb	r3, [r7, #7]
  6a:	429a      	cmp	r2, r3
  6c:	d3f0      	bcc.n	50 <DESDataRead+0x50>
  6e:	3724      	adds	r7, #36	; 0x24
  70:	46bd      	mov	sp, r7
  72:	f85d 7b04 	ldr.w	r7, [sp], #4
  76:	4770      	bx	lr

Disassembly of section .text.DESDataWriteNonBlocking:

00000000 <DESDataWriteNonBlocking>:
   0:	b480      	push	{r7}
   2:	b089      	sub	sp, #36	; 0x24
   4:	af00      	add	r7, sp, #0
   6:	60f8      	str	r0, [r7, #12]
   8:	60b9      	str	r1, [r7, #8]
   a:	4613      	mov	r3, r2
   c:	71fb      	strb	r3, [r7, #7]
   e:	2300      	movs	r3, #0
  10:	613b      	str	r3, [r7, #16]
  12:	2300      	movs	r3, #0
  14:	617b      	str	r3, [r7, #20]
  16:	79fb      	ldrb	r3, [r7, #7]
  18:	2b00      	cmp	r3, #0
  1a:	d002      	beq.n	22 <DESDataWriteNonBlocking+0x22>
  1c:	79fb      	ldrb	r3, [r7, #7]
  1e:	2b08      	cmp	r3, #8
  20:	d901      	bls.n	26 <DESDataWriteNonBlocking+0x26>
  22:	2300      	movs	r3, #0
  24:	e02a      	b.n	7c <DESDataWriteNonBlocking+0x7c>
  26:	68fb      	ldr	r3, [r7, #12]
  28:	3320      	adds	r3, #32
  2a:	681b      	ldr	r3, [r3, #0]
  2c:	f003 0302 	and.w	r3, r3, #2
  30:	2b00      	cmp	r3, #0
  32:	d101      	bne.n	38 <DESDataWriteNonBlocking+0x38>
  34:	2300      	movs	r3, #0
  36:	e021      	b.n	7c <DESDataWriteNonBlocking+0x7c>
  38:	f107 0310 	add.w	r3, r7, #16
  3c:	61bb      	str	r3, [r7, #24]
  3e:	2300      	movs	r3, #0
  40:	77fb      	strb	r3, [r7, #31]
  42:	e00a      	b.n	5a <DESDataWriteNonBlocking+0x5a>
  44:	7ffb      	ldrb	r3, [r7, #31]
  46:	69ba      	ldr	r2, [r7, #24]
  48:	4413      	add	r3, r2
  4a:	7ffa      	ldrb	r2, [r7, #31]
  4c:	68b9      	ldr	r1, [r7, #8]
  4e:	440a      	add	r2, r1
  50:	7812      	ldrb	r2, [r2, #0]
  52:	701a      	strb	r2, [r3, #0]
  54:	7ffb      	ldrb	r3, [r7, #31]
  56:	3301      	adds	r3, #1
  58:	77fb      	strb	r3, [r7, #31]
  5a:	7ffa      	ldrb	r2, [r7, #31]
  5c:	79fb      	ldrb	r3, [r7, #7]
  5e:	429a      	cmp	r2, r3
  60:	d3f0      	bcc.n	44 <DESDataWriteNonBlocking+0x44>
  62:	f249 0328 	movw	r3, #36904	; 0x9028
  66:	f2c4 4303 	movt	r3, #17411	; 0x4403
  6a:	693a      	ldr	r2, [r7, #16]
  6c:	601a      	str	r2, [r3, #0]
  6e:	f249 032c 	movw	r3, #36908	; 0x902c
  72:	f2c4 4303 	movt	r3, #17411	; 0x4403
  76:	697a      	ldr	r2, [r7, #20]
  78:	601a      	str	r2, [r3, #0]
  7a:	2301      	movs	r3, #1
  7c:	4618      	mov	r0, r3
  7e:	3724      	adds	r7, #36	; 0x24
  80:	46bd      	mov	sp, r7
  82:	f85d 7b04 	ldr.w	r7, [sp], #4
  86:	4770      	bx	lr

Disassembly of section .text.DESDataWrite:

00000000 <DESDataWrite>:
   0:	b480      	push	{r7}
   2:	b089      	sub	sp, #36	; 0x24
   4:	af00      	add	r7, sp, #0
   6:	60f8      	str	r0, [r7, #12]
   8:	60b9      	str	r1, [r7, #8]
   a:	4613      	mov	r3, r2
   c:	71fb      	strb	r3, [r7, #7]
   e:	2300      	movs	r3, #0
  10:	613b      	str	r3, [r7, #16]
  12:	2300      	movs	r3, #0
  14:	617b      	str	r3, [r7, #20]
  16:	79fb      	ldrb	r3, [r7, #7]
  18:	2b00      	cmp	r3, #0
  1a:	d002      	beq.n	22 <DESDataWrite+0x22>
  1c:	79fb      	ldrb	r3, [r7, #7]
  1e:	2b08      	cmp	r3, #8
  20:	d900      	bls.n	24 <DESDataWrite+0x24>
  22:	e028      	b.n	76 <DESDataWrite+0x76>
  24:	bf00      	nop
  26:	68fb      	ldr	r3, [r7, #12]
  28:	3320      	adds	r3, #32
  2a:	681b      	ldr	r3, [r3, #0]
  2c:	f003 0302 	and.w	r3, r3, #2
  30:	2b00      	cmp	r3, #0
  32:	d0f8      	beq.n	26 <DESDataWrite+0x26>
  34:	f107 0310 	add.w	r3, r7, #16
  38:	61bb      	str	r3, [r7, #24]
  3a:	2300      	movs	r3, #0
  3c:	77fb      	strb	r3, [r7, #31]
  3e:	e00a      	b.n	56 <DESDataWrite+0x56>
  40:	7ffb      	ldrb	r3, [r7, #31]
  42:	69ba      	ldr	r2, [r7, #24]
  44:	4413      	add	r3, r2
  46:	7ffa      	ldrb	r2, [r7, #31]
  48:	68b9      	ldr	r1, [r7, #8]
  4a:	440a      	add	r2, r1
  4c:	7812      	ldrb	r2, [r2, #0]
  4e:	701a      	strb	r2, [r3, #0]
  50:	7ffb      	ldrb	r3, [r7, #31]
  52:	3301      	adds	r3, #1
  54:	77fb      	strb	r3, [r7, #31]
  56:	7ffa      	ldrb	r2, [r7, #31]
  58:	79fb      	ldrb	r3, [r7, #7]
  5a:	429a      	cmp	r2, r3
  5c:	d3f0      	bcc.n	40 <DESDataWrite+0x40>
  5e:	f249 0328 	movw	r3, #36904	; 0x9028
  62:	f2c4 4303 	movt	r3, #17411	; 0x4403
  66:	693a      	ldr	r2, [r7, #16]
  68:	601a      	str	r2, [r3, #0]
  6a:	f249 032c 	movw	r3, #36908	; 0x902c
  6e:	f2c4 4303 	movt	r3, #17411	; 0x4403
  72:	697a      	ldr	r2, [r7, #20]
  74:	601a      	str	r2, [r3, #0]
  76:	3724      	adds	r7, #36	; 0x24
  78:	46bd      	mov	sp, r7
  7a:	f85d 7b04 	ldr.w	r7, [sp], #4
  7e:	4770      	bx	lr

Disassembly of section .text.DESDataProcess:

00000000 <DESDataProcess>:
   0:	b580      	push	{r7, lr}
   2:	b088      	sub	sp, #32
   4:	af00      	add	r7, sp, #0
   6:	60f8      	str	r0, [r7, #12]
   8:	60b9      	str	r1, [r7, #8]
   a:	607a      	str	r2, [r7, #4]
   c:	603b      	str	r3, [r7, #0]
   e:	68fb      	ldr	r3, [r7, #12]
  10:	3324      	adds	r3, #36	; 0x24
  12:	683a      	ldr	r2, [r7, #0]
  14:	601a      	str	r2, [r3, #0]
  16:	683b      	ldr	r3, [r7, #0]
  18:	08db      	lsrs	r3, r3, #3
  1a:	61bb      	str	r3, [r7, #24]
  1c:	2300      	movs	r3, #0
  1e:	61fb      	str	r3, [r7, #28]
  20:	e024      	b.n	6c <DESDataProcess+0x6c>
  22:	bf00      	nop
  24:	68fb      	ldr	r3, [r7, #12]
  26:	3320      	adds	r3, #32
  28:	681b      	ldr	r3, [r3, #0]
  2a:	f003 0302 	and.w	r3, r3, #2
  2e:	2b00      	cmp	r3, #0
  30:	d0f8      	beq.n	24 <DESDataProcess+0x24>
  32:	69fb      	ldr	r3, [r7, #28]
  34:	00db      	lsls	r3, r3, #3
  36:	68ba      	ldr	r2, [r7, #8]
  38:	4413      	add	r3, r2
  3a:	68f8      	ldr	r0, [r7, #12]
  3c:	4619      	mov	r1, r3
  3e:	2208      	movs	r2, #8
  40:	f7ff fffe 	bl	0 <DESDataProcess>
  44:	bf00      	nop
  46:	68fb      	ldr	r3, [r7, #12]
  48:	3320      	adds	r3, #32
  4a:	681b      	ldr	r3, [r3, #0]
  4c:	f003 0301 	and.w	r3, r3, #1
  50:	2b00      	cmp	r3, #0
  52:	d0f8      	beq.n	46 <DESDataProcess+0x46>
  54:	69fb      	ldr	r3, [r7, #28]
  56:	00db      	lsls	r3, r3, #3
  58:	687a      	ldr	r2, [r7, #4]
  5a:	4413      	add	r3, r2
  5c:	68f8      	ldr	r0, [r7, #12]
  5e:	4619      	mov	r1, r3
  60:	2208      	movs	r2, #8
  62:	f7ff fffe 	bl	0 <DESDataProcess>
  66:	69fb      	ldr	r3, [r7, #28]
  68:	3301      	adds	r3, #1
  6a:	61fb      	str	r3, [r7, #28]
  6c:	69fa      	ldr	r2, [r7, #28]
  6e:	69bb      	ldr	r3, [r7, #24]
  70:	429a      	cmp	r2, r3
  72:	d3d6      	bcc.n	22 <DESDataProcess+0x22>
  74:	683b      	ldr	r3, [r7, #0]
  76:	f003 0307 	and.w	r3, r3, #7
  7a:	617b      	str	r3, [r7, #20]
  7c:	697b      	ldr	r3, [r7, #20]
  7e:	2b00      	cmp	r3, #0
  80:	d029      	beq.n	d6 <DESDataProcess+0xd6>
  82:	bf00      	nop
  84:	68fb      	ldr	r3, [r7, #12]
  86:	3320      	adds	r3, #32
  88:	681b      	ldr	r3, [r3, #0]
  8a:	f003 0302 	and.w	r3, r3, #2
  8e:	2b00      	cmp	r3, #0
  90:	d0f8      	beq.n	84 <DESDataProcess+0x84>
  92:	69fb      	ldr	r3, [r7, #28]
  94:	69ba      	ldr	r2, [r7, #24]
  96:	fb02 f303 	mul.w	r3, r2, r3
  9a:	68ba      	ldr	r2, [r7, #8]
  9c:	441a      	add	r2, r3
  9e:	697b      	ldr	r3, [r7, #20]
  a0:	b2db      	uxtb	r3, r3
  a2:	68f8      	ldr	r0, [r7, #12]
  a4:	4611      	mov	r1, r2
  a6:	461a      	mov	r2, r3
  a8:	f7ff fffe 	bl	0 <DESDataProcess>
  ac:	bf00      	nop
  ae:	68fb      	ldr	r3, [r7, #12]
  b0:	3320      	adds	r3, #32
  b2:	681b      	ldr	r3, [r3, #0]
  b4:	f003 0301 	and.w	r3, r3, #1
  b8:	2b00      	cmp	r3, #0
  ba:	d0f8      	beq.n	ae <DESDataProcess+0xae>
  bc:	69fb      	ldr	r3, [r7, #28]
  be:	69ba      	ldr	r2, [r7, #24]
  c0:	fb02 f303 	mul.w	r3, r2, r3
  c4:	687a      	ldr	r2, [r7, #4]
  c6:	441a      	add	r2, r3
  c8:	697b      	ldr	r3, [r7, #20]
  ca:	b2db      	uxtb	r3, r3
  cc:	68f8      	ldr	r0, [r7, #12]
  ce:	4611      	mov	r1, r2
  d0:	461a      	mov	r2, r3
  d2:	f7ff fffe 	bl	0 <DESDataProcess>
  d6:	2301      	movs	r3, #1
  d8:	4618      	mov	r0, r3
  da:	3720      	adds	r7, #32
  dc:	46bd      	mov	sp, r7
  de:	bd80      	pop	{r7, pc}

Disassembly of section .text.DESIntStatus:

00000000 <DESIntStatus>:
   0:	b480      	push	{r7}
   2:	b085      	sub	sp, #20
   4:	af00      	add	r7, sp, #0
   6:	6078      	str	r0, [r7, #4]
   8:	460b      	mov	r3, r1
   a:	70fb      	strb	r3, [r7, #3]
   c:	78fb      	ldrb	r3, [r7, #3]
   e:	2b00      	cmp	r3, #0
  10:	d016      	beq.n	40 <DESIntStatus+0x40>
  12:	687b      	ldr	r3, [r7, #4]
  14:	333c      	adds	r3, #60	; 0x3c
  16:	681b      	ldr	r3, [r3, #0]
  18:	60fb      	str	r3, [r7, #12]
  1a:	687b      	ldr	r3, [r7, #4]
  1c:	3340      	adds	r3, #64	; 0x40
  1e:	681b      	ldr	r3, [r3, #0]
  20:	68fa      	ldr	r2, [r7, #12]
  22:	4013      	ands	r3, r2
  24:	60fb      	str	r3, [r7, #12]
  26:	f640 0338 	movw	r3, #2104	; 0x838
  2a:	f2c4 4303 	movt	r3, #17411	; 0x4403
  2e:	681b      	ldr	r3, [r3, #0]
  30:	f003 0307 	and.w	r3, r3, #7
  34:	041b      	lsls	r3, r3, #16
  36:	68fa      	ldr	r2, [r7, #12]
  38:	4313      	orrs	r3, r2
  3a:	60fb      	str	r3, [r7, #12]
  3c:	68fb      	ldr	r3, [r7, #12]
  3e:	e00f      	b.n	60 <DESIntStatus+0x60>
  40:	687b      	ldr	r3, [r7, #4]
  42:	333c      	adds	r3, #60	; 0x3c
  44:	681b      	ldr	r3, [r3, #0]
  46:	60fb      	str	r3, [r7, #12]
  48:	f640 0338 	movw	r3, #2104	; 0x838
  4c:	f2c4 4303 	movt	r3, #17411	; 0x4403
  50:	681b      	ldr	r3, [r3, #0]
  52:	f003 030d 	and.w	r3, r3, #13
  56:	041b      	lsls	r3, r3, #16
  58:	68fa      	ldr	r2, [r7, #12]
  5a:	4313      	orrs	r3, r2
  5c:	60fb      	str	r3, [r7, #12]
  5e:	68fb      	ldr	r3, [r7, #12]
  60:	4618      	mov	r0, r3
  62:	3714      	adds	r7, #20
  64:	46bd      	mov	sp, r7
  66:	f85d 7b04 	ldr.w	r7, [sp], #4
  6a:	4770      	bx	lr

Disassembly of section .text.DESIntEnable:

00000000 <DESIntEnable>:
   0:	b480      	push	{r7}
   2:	b083      	sub	sp, #12
   4:	af00      	add	r7, sp, #0
   6:	6078      	str	r0, [r7, #4]
   8:	6039      	str	r1, [r7, #0]
   a:	f44f 6303 	mov.w	r3, #2096	; 0x830
   e:	f2c4 4303 	movt	r3, #17411	; 0x4403
  12:	f44f 6203 	mov.w	r2, #2096	; 0x830
  16:	f2c4 4203 	movt	r2, #17411	; 0x4403
  1a:	6811      	ldr	r1, [r2, #0]
  1c:	683a      	ldr	r2, [r7, #0]
  1e:	f402 22e0 	and.w	r2, r2, #458752	; 0x70000
  22:	0c12      	lsrs	r2, r2, #16
  24:	43d2      	mvns	r2, r2
  26:	400a      	ands	r2, r1
  28:	601a      	str	r2, [r3, #0]
  2a:	687b      	ldr	r3, [r7, #4]
  2c:	3340      	adds	r3, #64	; 0x40
  2e:	687a      	ldr	r2, [r7, #4]
  30:	3240      	adds	r2, #64	; 0x40
  32:	6811      	ldr	r1, [r2, #0]
  34:	683a      	ldr	r2, [r7, #0]
  36:	b292      	uxth	r2, r2
  38:	430a      	orrs	r2, r1
  3a:	601a      	str	r2, [r3, #0]
  3c:	370c      	adds	r7, #12
  3e:	46bd      	mov	sp, r7
  40:	f85d 7b04 	ldr.w	r7, [sp], #4
  44:	4770      	bx	lr
  46:	bf00      	nop

Disassembly of section .text.DESIntDisable:

00000000 <DESIntDisable>:
   0:	b480      	push	{r7}
   2:	b083      	sub	sp, #12
   4:	af00      	add	r7, sp, #0
   6:	6078      	str	r0, [r7, #4]
   8:	6039      	str	r1, [r7, #0]
   a:	f44f 6302 	mov.w	r3, #2080	; 0x820
   e:	f2c4 4303 	movt	r3, #17411	; 0x4403
  12:	f44f 6202 	mov.w	r2, #2080	; 0x820
  16:	f2c4 4203 	movt	r2, #17411	; 0x4403
  1a:	6811      	ldr	r1, [r2, #0]
  1c:	683a      	ldr	r2, [r7, #0]
  1e:	f402 22e0 	and.w	r2, r2, #458752	; 0x70000
  22:	0c12      	lsrs	r2, r2, #16
  24:	430a      	orrs	r2, r1
  26:	601a      	str	r2, [r3, #0]
  28:	687b      	ldr	r3, [r7, #4]
  2a:	3340      	adds	r3, #64	; 0x40
  2c:	687a      	ldr	r2, [r7, #4]
  2e:	3240      	adds	r2, #64	; 0x40
  30:	6811      	ldr	r1, [r2, #0]
  32:	683a      	ldr	r2, [r7, #0]
  34:	b292      	uxth	r2, r2
  36:	43d2      	mvns	r2, r2
  38:	400a      	ands	r2, r1
  3a:	601a      	str	r2, [r3, #0]
  3c:	370c      	adds	r7, #12
  3e:	46bd      	mov	sp, r7
  40:	f85d 7b04 	ldr.w	r7, [sp], #4
  44:	4770      	bx	lr
  46:	bf00      	nop

Disassembly of section .text.DESIntClear:

00000000 <DESIntClear>:
   0:	b480      	push	{r7}
   2:	b083      	sub	sp, #12
   4:	af00      	add	r7, sp, #0
   6:	6078      	str	r0, [r7, #4]
   8:	6039      	str	r1, [r7, #0]
   a:	f640 033c 	movw	r3, #2108	; 0x83c
   e:	f2c4 4303 	movt	r3, #17411	; 0x4403
  12:	683a      	ldr	r2, [r7, #0]
  14:	f402 22e0 	and.w	r2, r2, #458752	; 0x70000
  18:	0c12      	lsrs	r2, r2, #16
  1a:	601a      	str	r2, [r3, #0]
  1c:	370c      	adds	r7, #12
  1e:	46bd      	mov	sp, r7
  20:	f85d 7b04 	ldr.w	r7, [sp], #4
  24:	4770      	bx	lr
  26:	bf00      	nop

Disassembly of section .text.DESIntRegister:

00000000 <DESIntRegister>:
   0:	b580      	push	{r7, lr}
   2:	b082      	sub	sp, #8
   4:	af00      	add	r7, sp, #0
   6:	6078      	str	r0, [r7, #4]
   8:	6039      	str	r1, [r7, #0]
   a:	20a9      	movs	r0, #169	; 0xa9
   c:	6839      	ldr	r1, [r7, #0]
   e:	f7ff fffe 	bl	0 <IntRegister>
  12:	20a9      	movs	r0, #169	; 0xa9
  14:	f7ff fffe 	bl	0 <IntEnable>
  18:	3708      	adds	r7, #8
  1a:	46bd      	mov	sp, r7
  1c:	bd80      	pop	{r7, pc}
  1e:	bf00      	nop

Disassembly of section .text.DESIntUnregister:

00000000 <DESIntUnregister>:
   0:	b580      	push	{r7, lr}
   2:	b082      	sub	sp, #8
   4:	af00      	add	r7, sp, #0
   6:	6078      	str	r0, [r7, #4]
   8:	20a9      	movs	r0, #169	; 0xa9
   a:	f7ff fffe 	bl	0 <IntDisable>
   e:	20a9      	movs	r0, #169	; 0xa9
  10:	f7ff fffe 	bl	0 <IntUnregister>
  14:	3708      	adds	r7, #8
  16:	46bd      	mov	sp, r7
  18:	bd80      	pop	{r7, pc}
  1a:	bf00      	nop

Disassembly of section .text.DESDMAEnable:

00000000 <DESDMAEnable>:
   0:	b480      	push	{r7}
   2:	b083      	sub	sp, #12
   4:	af00      	add	r7, sp, #0
   6:	6078      	str	r0, [r7, #4]
   8:	6039      	str	r1, [r7, #0]
   a:	687b      	ldr	r3, [r7, #4]
   c:	3334      	adds	r3, #52	; 0x34
   e:	687a      	ldr	r2, [r7, #4]
  10:	3234      	adds	r2, #52	; 0x34
  12:	6811      	ldr	r1, [r2, #0]
  14:	683a      	ldr	r2, [r7, #0]
  16:	430a      	orrs	r2, r1
  18:	601a      	str	r2, [r3, #0]
  1a:	370c      	adds	r7, #12
  1c:	46bd      	mov	sp, r7
  1e:	f85d 7b04 	ldr.w	r7, [sp], #4
  22:	4770      	bx	lr

Disassembly of section .text.DESDMADisable:

00000000 <DESDMADisable>:
   0:	b480      	push	{r7}
   2:	b083      	sub	sp, #12
   4:	af00      	add	r7, sp, #0
   6:	6078      	str	r0, [r7, #4]
   8:	6039      	str	r1, [r7, #0]
   a:	687b      	ldr	r3, [r7, #4]
   c:	3334      	adds	r3, #52	; 0x34
   e:	687a      	ldr	r2, [r7, #4]
  10:	3234      	adds	r2, #52	; 0x34
  12:	6811      	ldr	r1, [r2, #0]
  14:	683a      	ldr	r2, [r7, #0]
  16:	43d2      	mvns	r2, r2
  18:	400a      	ands	r2, r1
  1a:	601a      	str	r2, [r3, #0]
  1c:	370c      	adds	r7, #12
  1e:	46bd      	mov	sp, r7
  20:	f85d 7b04 	ldr.w	r7, [sp], #4
  24:	4770      	bx	lr
  26:	bf00      	nop

Disassembly of section .text.FlashDisable:

00000000 <FlashDisable>:
   0:	b580      	push	{r7, lr}
   2:	af00      	add	r7, sp, #0
   4:	bf00      	nop
   6:	f44f 4351 	mov.w	r3, #53504	; 0xd100
   a:	f2c4 4302 	movt	r3, #17410	; 0x4402
   e:	681b      	ldr	r3, [r3, #0]
  10:	f403 5380 	and.w	r3, r3, #4096	; 0x1000
  14:	2b00      	cmp	r3, #0
  16:	d1f6      	bne.n	6 <FlashDisable+0x6>
  18:	f24f 1314 	movw	r3, #61716	; 0xf114
  1c:	f2c4 4302 	movt	r3, #17410	; 0x4402
  20:	2200      	movs	r2, #0
  22:	f6cf 72ff 	movt	r2, #65535	; 0xffff
  26:	601a      	str	r2, [r3, #0]
  28:	f240 5035 	movw	r0, #1333	; 0x535
  2c:	f7ff fffe 	bl	0 <UtilsDelay>
  30:	f44f 4351 	mov.w	r3, #53504	; 0xd100
  34:	f2c4 4302 	movt	r3, #17410	; 0x4402
  38:	2200      	movs	r2, #0
  3a:	601a      	str	r2, [r3, #0]
  3c:	f240 5035 	movw	r0, #1333	; 0x535
  40:	f7ff fffe 	bl	0 <UtilsDelay>
  44:	f24f 03c0 	movw	r3, #61632	; 0xf0c0
  48:	f2c4 4302 	movt	r3, #17410	; 0x4402
  4c:	2201      	movs	r2, #1
  4e:	601a      	str	r2, [r3, #0]
  50:	f240 5035 	movw	r0, #1333	; 0x535
  54:	f7ff fffe 	bl	0 <UtilsDelay>
  58:	bd80      	pop	{r7, pc}
  5a:	bf00      	nop

Disassembly of section .text.FlashErase:

00000000 <FlashErase>:
   0:	b480      	push	{r7}
   2:	b083      	sub	sp, #12
   4:	af00      	add	r7, sp, #0
   6:	6078      	str	r0, [r7, #4]
   8:	f24d 0314 	movw	r3, #53268	; 0xd014
   c:	f2c4 030f 	movt	r3, #16399	; 0x400f
  10:	f640 2201 	movw	r2, #2561	; 0xa01
  14:	601a      	str	r2, [r3, #0]
  16:	f44f 4350 	mov.w	r3, #53248	; 0xd000
  1a:	f2c4 030f 	movt	r3, #16399	; 0x400f
  1e:	687a      	ldr	r2, [r7, #4]
  20:	601a      	str	r2, [r3, #0]
  22:	f24d 0308 	movw	r3, #53256	; 0xd008
  26:	f2c4 030f 	movt	r3, #16399	; 0x400f
  2a:	2202      	movs	r2, #2
  2c:	f2ca 4242 	movt	r2, #42050	; 0xa442
  30:	601a      	str	r2, [r3, #0]
  32:	bf00      	nop
  34:	f24d 0308 	movw	r3, #53256	; 0xd008
  38:	f2c4 030f 	movt	r3, #16399	; 0x400f
  3c:	681b      	ldr	r3, [r3, #0]
  3e:	f003 0302 	and.w	r3, r3, #2
  42:	2b00      	cmp	r3, #0
  44:	d1f6      	bne.n	34 <FlashErase+0x34>
  46:	f24d 030c 	movw	r3, #53260	; 0xd00c
  4a:	f2c4 030f 	movt	r3, #16399	; 0x400f
  4e:	681a      	ldr	r2, [r3, #0]
  50:	f640 2301 	movw	r3, #2561	; 0xa01
  54:	4013      	ands	r3, r2
  56:	2b00      	cmp	r3, #0
  58:	d002      	beq.n	60 <FlashErase+0x60>
  5a:	f04f 33ff 	mov.w	r3, #4294967295
  5e:	e000      	b.n	62 <FlashErase+0x62>
  60:	2300      	movs	r3, #0
  62:	4618      	mov	r0, r3
  64:	370c      	adds	r7, #12
  66:	46bd      	mov	sp, r7
  68:	f85d 7b04 	ldr.w	r7, [sp], #4
  6c:	4770      	bx	lr
  6e:	bf00      	nop

Disassembly of section .text.FlashEraseNonBlocking:

00000000 <FlashEraseNonBlocking>:
   0:	b480      	push	{r7}
   2:	b083      	sub	sp, #12
   4:	af00      	add	r7, sp, #0
   6:	6078      	str	r0, [r7, #4]
   8:	f24d 0314 	movw	r3, #53268	; 0xd014
   c:	f2c4 030f 	movt	r3, #16399	; 0x400f
  10:	f640 2201 	movw	r2, #2561	; 0xa01
  14:	601a      	str	r2, [r3, #0]
  16:	f44f 4350 	mov.w	r3, #53248	; 0xd000
  1a:	f2c4 030f 	movt	r3, #16399	; 0x400f
  1e:	687a      	ldr	r2, [r7, #4]
  20:	601a      	str	r2, [r3, #0]
  22:	f24d 0308 	movw	r3, #53256	; 0xd008
  26:	f2c4 030f 	movt	r3, #16399	; 0x400f
  2a:	2202      	movs	r2, #2
  2c:	f2ca 4242 	movt	r2, #42050	; 0xa442
  30:	601a      	str	r2, [r3, #0]
  32:	370c      	adds	r7, #12
  34:	46bd      	mov	sp, r7
  36:	f85d 7b04 	ldr.w	r7, [sp], #4
  3a:	4770      	bx	lr

Disassembly of section .text.FlashMassErase:

00000000 <FlashMassErase>:
   0:	b480      	push	{r7}
   2:	af00      	add	r7, sp, #0
   4:	f24d 0314 	movw	r3, #53268	; 0xd014
   8:	f2c4 030f 	movt	r3, #16399	; 0x400f
   c:	f640 2201 	movw	r2, #2561	; 0xa01
  10:	601a      	str	r2, [r3, #0]
  12:	f24d 0308 	movw	r3, #53256	; 0xd008
  16:	f2c4 030f 	movt	r3, #16399	; 0x400f
  1a:	2204      	movs	r2, #4
  1c:	f2ca 4242 	movt	r2, #42050	; 0xa442
  20:	601a      	str	r2, [r3, #0]
  22:	bf00      	nop
  24:	f24d 0308 	movw	r3, #53256	; 0xd008
  28:	f2c4 030f 	movt	r3, #16399	; 0x400f
  2c:	681b      	ldr	r3, [r3, #0]
  2e:	f003 0304 	and.w	r3, r3, #4
  32:	2b00      	cmp	r3, #0
  34:	d1f6      	bne.n	24 <FlashMassErase+0x24>
  36:	f24d 030c 	movw	r3, #53260	; 0xd00c
  3a:	f2c4 030f 	movt	r3, #16399	; 0x400f
  3e:	681a      	ldr	r2, [r3, #0]
  40:	f640 2301 	movw	r3, #2561	; 0xa01
  44:	4013      	ands	r3, r2
  46:	2b00      	cmp	r3, #0
  48:	d002      	beq.n	50 <FlashMassErase+0x50>
  4a:	f04f 33ff 	mov.w	r3, #4294967295
  4e:	e000      	b.n	52 <FlashMassErase+0x52>
  50:	2300      	movs	r3, #0
  52:	4618      	mov	r0, r3
  54:	46bd      	mov	sp, r7
  56:	f85d 7b04 	ldr.w	r7, [sp], #4
  5a:	4770      	bx	lr

Disassembly of section .text.FlashMassEraseNonBlocking:

00000000 <FlashMassEraseNonBlocking>:
   0:	b480      	push	{r7}
   2:	af00      	add	r7, sp, #0
   4:	f24d 0314 	movw	r3, #53268	; 0xd014
   8:	f2c4 030f 	movt	r3, #16399	; 0x400f
   c:	f640 2201 	movw	r2, #2561	; 0xa01
  10:	601a      	str	r2, [r3, #0]
  12:	f24d 0308 	movw	r3, #53256	; 0xd008
  16:	f2c4 030f 	movt	r3, #16399	; 0x400f
  1a:	2204      	movs	r2, #4
  1c:	f2ca 4242 	movt	r2, #42050	; 0xa442
  20:	601a      	str	r2, [r3, #0]
  22:	46bd      	mov	sp, r7
  24:	f85d 7b04 	ldr.w	r7, [sp], #4
  28:	4770      	bx	lr
  2a:	bf00      	nop

Disassembly of section .text.FlashProgram:

00000000 <FlashProgram>:
   0:	b480      	push	{r7}
   2:	b085      	sub	sp, #20
   4:	af00      	add	r7, sp, #0
   6:	60f8      	str	r0, [r7, #12]
   8:	60b9      	str	r1, [r7, #8]
   a:	607a      	str	r2, [r7, #4]
   c:	f24d 0314 	movw	r3, #53268	; 0xd014
  10:	f2c4 030f 	movt	r3, #16399	; 0x400f
  14:	f242 6201 	movw	r2, #9729	; 0x2601
  18:	601a      	str	r2, [r3, #0]
  1a:	e03d      	b.n	98 <FlashProgram+0x98>
  1c:	f44f 4350 	mov.w	r3, #53248	; 0xd000
  20:	f2c4 030f 	movt	r3, #16399	; 0x400f
  24:	68ba      	ldr	r2, [r7, #8]
  26:	f022 027f 	bic.w	r2, r2, #127	; 0x7f
  2a:	601a      	str	r2, [r3, #0]
  2c:	e013      	b.n	56 <FlashProgram+0x56>
  2e:	68bb      	ldr	r3, [r7, #8]
  30:	f003 027c 	and.w	r2, r3, #124	; 0x7c
  34:	f44f 4351 	mov.w	r3, #53504	; 0xd100
  38:	f2c4 030f 	movt	r3, #16399	; 0x400f
  3c:	4413      	add	r3, r2
  3e:	461a      	mov	r2, r3
  40:	68fb      	ldr	r3, [r7, #12]
  42:	1d19      	adds	r1, r3, #4
  44:	60f9      	str	r1, [r7, #12]
  46:	681b      	ldr	r3, [r3, #0]
  48:	6013      	str	r3, [r2, #0]
  4a:	68bb      	ldr	r3, [r7, #8]
  4c:	3304      	adds	r3, #4
  4e:	60bb      	str	r3, [r7, #8]
  50:	687b      	ldr	r3, [r7, #4]
  52:	3b04      	subs	r3, #4
  54:	607b      	str	r3, [r7, #4]
  56:	68bb      	ldr	r3, [r7, #8]
  58:	f003 037c 	and.w	r3, r3, #124	; 0x7c
  5c:	2b00      	cmp	r3, #0
  5e:	d106      	bne.n	6e <FlashProgram+0x6e>
  60:	f24d 0330 	movw	r3, #53296	; 0xd030
  64:	f2c4 030f 	movt	r3, #16399	; 0x400f
  68:	681b      	ldr	r3, [r3, #0]
  6a:	2b00      	cmp	r3, #0
  6c:	d102      	bne.n	74 <FlashProgram+0x74>
  6e:	687b      	ldr	r3, [r7, #4]
  70:	2b00      	cmp	r3, #0
  72:	d1dc      	bne.n	2e <FlashProgram+0x2e>
  74:	f24d 0320 	movw	r3, #53280	; 0xd020
  78:	f2c4 030f 	movt	r3, #16399	; 0x400f
  7c:	2201      	movs	r2, #1
  7e:	f2ca 4242 	movt	r2, #42050	; 0xa442
  82:	601a      	str	r2, [r3, #0]
  84:	bf00      	nop
  86:	f24d 0320 	movw	r3, #53280	; 0xd020
  8a:	f2c4 030f 	movt	r3, #16399	; 0x400f
  8e:	681b      	ldr	r3, [r3, #0]
  90:	f003 0301 	and.w	r3, r3, #1
  94:	2b00      	cmp	r3, #0
  96:	d1f6      	bne.n	86 <FlashProgram+0x86>
  98:	687b      	ldr	r3, [r7, #4]
  9a:	2b00      	cmp	r3, #0
  9c:	d1be      	bne.n	1c <FlashProgram+0x1c>
  9e:	f24d 030c 	movw	r3, #53260	; 0xd00c
  a2:	f2c4 030f 	movt	r3, #16399	; 0x400f
  a6:	681a      	ldr	r2, [r3, #0]
  a8:	f242 6301 	movw	r3, #9729	; 0x2601
  ac:	4013      	ands	r3, r2
  ae:	2b00      	cmp	r3, #0
  b0:	d002      	beq.n	b8 <FlashProgram+0xb8>
  b2:	f04f 33ff 	mov.w	r3, #4294967295
  b6:	e000      	b.n	ba <FlashProgram+0xba>
  b8:	2300      	movs	r3, #0
  ba:	4618      	mov	r0, r3
  bc:	3714      	adds	r7, #20
  be:	46bd      	mov	sp, r7
  c0:	f85d 7b04 	ldr.w	r7, [sp], #4
  c4:	4770      	bx	lr
  c6:	bf00      	nop

Disassembly of section .text.FlashProgramNonBlocking:

00000000 <FlashProgramNonBlocking>:
   0:	b480      	push	{r7}
   2:	b085      	sub	sp, #20
   4:	af00      	add	r7, sp, #0
   6:	60f8      	str	r0, [r7, #12]
   8:	60b9      	str	r1, [r7, #8]
   a:	607a      	str	r2, [r7, #4]
   c:	f24d 0314 	movw	r3, #53268	; 0xd014
  10:	f2c4 030f 	movt	r3, #16399	; 0x400f
  14:	f242 6201 	movw	r2, #9729	; 0x2601
  18:	601a      	str	r2, [r3, #0]
  1a:	687a      	ldr	r2, [r7, #4]
  1c:	68bb      	ldr	r3, [r7, #8]
  1e:	4413      	add	r3, r2
  20:	1e5a      	subs	r2, r3, #1
  22:	68bb      	ldr	r3, [r7, #8]
  24:	4053      	eors	r3, r2
  26:	f023 037f 	bic.w	r3, r3, #127	; 0x7f
  2a:	2b00      	cmp	r3, #0
  2c:	d002      	beq.n	34 <FlashProgramNonBlocking+0x34>
  2e:	f04f 33ff 	mov.w	r3, #4294967295
  32:	e038      	b.n	a6 <FlashProgramNonBlocking+0xa6>
  34:	e033      	b.n	9e <FlashProgramNonBlocking+0x9e>
  36:	f44f 4350 	mov.w	r3, #53248	; 0xd000
  3a:	f2c4 030f 	movt	r3, #16399	; 0x400f
  3e:	68ba      	ldr	r2, [r7, #8]
  40:	f022 027f 	bic.w	r2, r2, #127	; 0x7f
  44:	601a      	str	r2, [r3, #0]
  46:	e013      	b.n	70 <FlashProgramNonBlocking+0x70>
  48:	68bb      	ldr	r3, [r7, #8]
  4a:	f003 027c 	and.w	r2, r3, #124	; 0x7c
  4e:	f44f 4351 	mov.w	r3, #53504	; 0xd100
  52:	f2c4 030f 	movt	r3, #16399	; 0x400f
  56:	4413      	add	r3, r2
  58:	461a      	mov	r2, r3
  5a:	68fb      	ldr	r3, [r7, #12]
  5c:	1d19      	adds	r1, r3, #4
  5e:	60f9      	str	r1, [r7, #12]
  60:	681b      	ldr	r3, [r3, #0]
  62:	6013      	str	r3, [r2, #0]
  64:	68bb      	ldr	r3, [r7, #8]
  66:	3304      	adds	r3, #4
  68:	60bb      	str	r3, [r7, #8]
  6a:	687b      	ldr	r3, [r7, #4]
  6c:	3b04      	subs	r3, #4
  6e:	607b      	str	r3, [r7, #4]
  70:	68bb      	ldr	r3, [r7, #8]
  72:	f003 037c 	and.w	r3, r3, #124	; 0x7c
  76:	2b00      	cmp	r3, #0
  78:	d106      	bne.n	88 <FlashProgramNonBlocking+0x88>
  7a:	f24d 0330 	movw	r3, #53296	; 0xd030
  7e:	f2c4 030f 	movt	r3, #16399	; 0x400f
  82:	681b      	ldr	r3, [r3, #0]
  84:	2b00      	cmp	r3, #0
  86:	d102      	bne.n	8e <FlashProgramNonBlocking+0x8e>
  88:	687b      	ldr	r3, [r7, #4]
  8a:	2b00      	cmp	r3, #0
  8c:	d1dc      	bne.n	48 <FlashProgramNonBlocking+0x48>
  8e:	f24d 0320 	movw	r3, #53280	; 0xd020
  92:	f2c4 030f 	movt	r3, #16399	; 0x400f
  96:	2201      	movs	r2, #1
  98:	f2ca 4242 	movt	r2, #42050	; 0xa442
  9c:	601a      	str	r2, [r3, #0]
  9e:	687b      	ldr	r3, [r7, #4]
  a0:	2b00      	cmp	r3, #0
  a2:	d1c8      	bne.n	36 <FlashProgramNonBlocking+0x36>
  a4:	2300      	movs	r3, #0
  a6:	4618      	mov	r0, r3
  a8:	3714      	adds	r7, #20
  aa:	46bd      	mov	sp, r7
  ac:	f85d 7b04 	ldr.w	r7, [sp], #4
  b0:	4770      	bx	lr
  b2:	bf00      	nop

Disassembly of section .text.FlashProtectGet:

00000000 <FlashProtectGet>:
   0:	b480      	push	{r7}
   2:	b087      	sub	sp, #28
   4:	af00      	add	r7, sp, #0
   6:	6078      	str	r0, [r7, #4]
   8:	687b      	ldr	r3, [r7, #4]
   a:	0c1b      	lsrs	r3, r3, #16
   c:	f003 030f 	and.w	r3, r3, #15
  10:	617b      	str	r3, [r7, #20]
  12:	687b      	ldr	r3, [r7, #4]
  14:	b29b      	uxth	r3, r3
  16:	607b      	str	r3, [r7, #4]
  18:	f240 0300 	movw	r3, #0
  1c:	f2c0 0300 	movt	r3, #0
  20:	697a      	ldr	r2, [r7, #20]
  22:	f853 3022 	ldr.w	r3, [r3, r2, lsl #2]
  26:	681b      	ldr	r3, [r3, #0]
  28:	613b      	str	r3, [r7, #16]
  2a:	f240 0300 	movw	r3, #0
  2e:	f2c0 0300 	movt	r3, #0
  32:	697a      	ldr	r2, [r7, #20]
  34:	f853 3022 	ldr.w	r3, [r3, r2, lsl #2]
  38:	681b      	ldr	r3, [r3, #0]
  3a:	60fb      	str	r3, [r7, #12]
  3c:	687b      	ldr	r3, [r7, #4]
  3e:	0adb      	lsrs	r3, r3, #11
  40:	693a      	ldr	r2, [r7, #16]
  42:	fa22 f303 	lsr.w	r3, r2, r3
  46:	f003 0301 	and.w	r3, r3, #1
  4a:	005a      	lsls	r2, r3, #1
  4c:	687b      	ldr	r3, [r7, #4]
  4e:	0adb      	lsrs	r3, r3, #11
  50:	68f9      	ldr	r1, [r7, #12]
  52:	fa21 f303 	lsr.w	r3, r1, r3
  56:	f003 0301 	and.w	r3, r3, #1
  5a:	4313      	orrs	r3, r2
  5c:	2b01      	cmp	r3, #1
  5e:	d902      	bls.n	66 <FlashProtectGet+0x66>
  60:	2b02      	cmp	r3, #2
  62:	d002      	beq.n	6a <FlashProtectGet+0x6a>
  64:	e003      	b.n	6e <FlashProtectGet+0x6e>
  66:	2302      	movs	r3, #2
  68:	e002      	b.n	70 <FlashProtectGet+0x70>
  6a:	2301      	movs	r3, #1
  6c:	e000      	b.n	70 <FlashProtectGet+0x70>
  6e:	2300      	movs	r3, #0
  70:	4618      	mov	r0, r3
  72:	371c      	adds	r7, #28
  74:	46bd      	mov	sp, r7
  76:	f85d 7b04 	ldr.w	r7, [sp], #4
  7a:	4770      	bx	lr

Disassembly of section .text.FlashIntRegister:

00000000 <FlashIntRegister>:
   0:	b580      	push	{r7, lr}
   2:	b082      	sub	sp, #8
   4:	af00      	add	r7, sp, #0
   6:	6078      	str	r0, [r7, #4]
   8:	202d      	movs	r0, #45	; 0x2d
   a:	6879      	ldr	r1, [r7, #4]
   c:	f7ff fffe 	bl	0 <IntRegister>
  10:	202d      	movs	r0, #45	; 0x2d
  12:	f7ff fffe 	bl	0 <IntEnable>
  16:	3708      	adds	r7, #8
  18:	46bd      	mov	sp, r7
  1a:	bd80      	pop	{r7, pc}

Disassembly of section .text.FlashIntUnregister:

00000000 <FlashIntUnregister>:
   0:	b580      	push	{r7, lr}
   2:	af00      	add	r7, sp, #0
   4:	202d      	movs	r0, #45	; 0x2d
   6:	f7ff fffe 	bl	0 <IntDisable>
   a:	202d      	movs	r0, #45	; 0x2d
   c:	f7ff fffe 	bl	0 <IntUnregister>
  10:	bd80      	pop	{r7, pc}
  12:	bf00      	nop

Disassembly of section .text.FlashIntEnable:

00000000 <FlashIntEnable>:
   0:	b480      	push	{r7}
   2:	b083      	sub	sp, #12
   4:	af00      	add	r7, sp, #0
   6:	6078      	str	r0, [r7, #4]
   8:	f24d 0310 	movw	r3, #53264	; 0xd010
   c:	f2c4 030f 	movt	r3, #16399	; 0x400f
  10:	f24d 0210 	movw	r2, #53264	; 0xd010
  14:	f2c4 020f 	movt	r2, #16399	; 0x400f
  18:	6811      	ldr	r1, [r2, #0]
  1a:	687a      	ldr	r2, [r7, #4]
  1c:	430a      	orrs	r2, r1
  1e:	601a      	str	r2, [r3, #0]
  20:	370c      	adds	r7, #12
  22:	46bd      	mov	sp, r7
  24:	f85d 7b04 	ldr.w	r7, [sp], #4
  28:	4770      	bx	lr
  2a:	bf00      	nop

Disassembly of section .text.FlashIntDisable:

00000000 <FlashIntDisable>:
   0:	b480      	push	{r7}
   2:	b083      	sub	sp, #12
   4:	af00      	add	r7, sp, #0
   6:	6078      	str	r0, [r7, #4]
   8:	f24d 0310 	movw	r3, #53264	; 0xd010
   c:	f2c4 030f 	movt	r3, #16399	; 0x400f
  10:	f24d 0210 	movw	r2, #53264	; 0xd010
  14:	f2c4 020f 	movt	r2, #16399	; 0x400f
  18:	6811      	ldr	r1, [r2, #0]
  1a:	687a      	ldr	r2, [r7, #4]
  1c:	43d2      	mvns	r2, r2
  1e:	400a      	ands	r2, r1
  20:	601a      	str	r2, [r3, #0]
  22:	370c      	adds	r7, #12
  24:	46bd      	mov	sp, r7
  26:	f85d 7b04 	ldr.w	r7, [sp], #4
  2a:	4770      	bx	lr

Disassembly of section .text.FlashIntStatus:

00000000 <FlashIntStatus>:
   0:	b480      	push	{r7}
   2:	b083      	sub	sp, #12
   4:	af00      	add	r7, sp, #0
   6:	4603      	mov	r3, r0
   8:	71fb      	strb	r3, [r7, #7]
   a:	79fb      	ldrb	r3, [r7, #7]
   c:	2b00      	cmp	r3, #0
   e:	d005      	beq.n	1c <FlashIntStatus+0x1c>
  10:	f24d 0314 	movw	r3, #53268	; 0xd014
  14:	f2c4 030f 	movt	r3, #16399	; 0x400f
  18:	681b      	ldr	r3, [r3, #0]
  1a:	e004      	b.n	26 <FlashIntStatus+0x26>
  1c:	f24d 030c 	movw	r3, #53260	; 0xd00c
  20:	f2c4 030f 	movt	r3, #16399	; 0x400f
  24:	681b      	ldr	r3, [r3, #0]
  26:	4618      	mov	r0, r3
  28:	370c      	adds	r7, #12
  2a:	46bd      	mov	sp, r7
  2c:	f85d 7b04 	ldr.w	r7, [sp], #4
  30:	4770      	bx	lr
  32:	bf00      	nop

Disassembly of section .text.FlashIntClear:

00000000 <FlashIntClear>:
   0:	b480      	push	{r7}
   2:	b083      	sub	sp, #12
   4:	af00      	add	r7, sp, #0
   6:	6078      	str	r0, [r7, #4]
   8:	f24d 0314 	movw	r3, #53268	; 0xd014
   c:	f2c4 030f 	movt	r3, #16399	; 0x400f
  10:	687a      	ldr	r2, [r7, #4]
  12:	601a      	str	r2, [r3, #0]
  14:	370c      	adds	r7, #12
  16:	46bd      	mov	sp, r7
  18:	f85d 7b04 	ldr.w	r7, [sp], #4
  1c:	4770      	bx	lr
  1e:	bf00      	nop

Disassembly of section .text.GPIOGetIntNumber:

00000000 <GPIOGetIntNumber>:
   0:	b480      	push	{r7}
   2:	b085      	sub	sp, #20
   4:	af00      	add	r7, sp, #0
   6:	6078      	str	r0, [r7, #4]
   8:	687b      	ldr	r3, [r7, #4]
   a:	f44f 42a0 	mov.w	r2, #20480	; 0x5000
   e:	f2c4 0200 	movt	r2, #16384	; 0x4000
  12:	4293      	cmp	r3, r2
  14:	d019      	beq.n	4a <GPIOGetIntNumber+0x4a>
  16:	f44f 42a0 	mov.w	r2, #20480	; 0x5000
  1a:	f2c4 0200 	movt	r2, #16384	; 0x4000
  1e:	4293      	cmp	r3, r2
  20:	d803      	bhi.n	2a <GPIOGetIntNumber+0x2a>
  22:	f1b3 2f40 	cmp.w	r3, #1073758208	; 0x40004000
  26:	d00d      	beq.n	44 <GPIOGetIntNumber+0x44>
  28:	e018      	b.n	5c <GPIOGetIntNumber+0x5c>
  2a:	f44f 42c0 	mov.w	r2, #24576	; 0x6000
  2e:	f2c4 0200 	movt	r2, #16384	; 0x4000
  32:	4293      	cmp	r3, r2
  34:	d00c      	beq.n	50 <GPIOGetIntNumber+0x50>
  36:	f44f 42e0 	mov.w	r2, #28672	; 0x7000
  3a:	f2c4 0200 	movt	r2, #16384	; 0x4000
  3e:	4293      	cmp	r3, r2
  40:	d009      	beq.n	56 <GPIOGetIntNumber+0x56>
  42:	e00b      	b.n	5c <GPIOGetIntNumber+0x5c>
  44:	2310      	movs	r3, #16
  46:	60fb      	str	r3, [r7, #12]
  48:	e00b      	b.n	62 <GPIOGetIntNumber+0x62>
  4a:	2311      	movs	r3, #17
  4c:	60fb      	str	r3, [r7, #12]
  4e:	e008      	b.n	62 <GPIOGetIntNumber+0x62>
  50:	2312      	movs	r3, #18
  52:	60fb      	str	r3, [r7, #12]
  54:	e005      	b.n	62 <GPIOGetIntNumber+0x62>
  56:	2313      	movs	r3, #19
  58:	60fb      	str	r3, [r7, #12]
  5a:	e002      	b.n	62 <GPIOGetIntNumber+0x62>
  5c:	f04f 33ff 	mov.w	r3, #4294967295
  60:	e000      	b.n	64 <GPIOGetIntNumber+0x64>
  62:	68fb      	ldr	r3, [r7, #12]
  64:	4618      	mov	r0, r3
  66:	3714      	adds	r7, #20
  68:	46bd      	mov	sp, r7
  6a:	f85d 7b04 	ldr.w	r7, [sp], #4
  6e:	4770      	bx	lr

Disassembly of section .text.GPIODirModeSet:

00000000 <GPIODirModeSet>:
   0:	b480      	push	{r7}
   2:	b085      	sub	sp, #20
   4:	af00      	add	r7, sp, #0
   6:	60f8      	str	r0, [r7, #12]
   8:	460b      	mov	r3, r1
   a:	607a      	str	r2, [r7, #4]
   c:	72fb      	strb	r3, [r7, #11]
   e:	68fb      	ldr	r3, [r7, #12]
  10:	f503 6380 	add.w	r3, r3, #1024	; 0x400
  14:	461a      	mov	r2, r3
  16:	687b      	ldr	r3, [r7, #4]
  18:	f003 0301 	and.w	r3, r3, #1
  1c:	2b00      	cmp	r3, #0
  1e:	d006      	beq.n	2e <GPIODirModeSet+0x2e>
  20:	68fb      	ldr	r3, [r7, #12]
  22:	f503 6380 	add.w	r3, r3, #1024	; 0x400
  26:	6819      	ldr	r1, [r3, #0]
  28:	7afb      	ldrb	r3, [r7, #11]
  2a:	430b      	orrs	r3, r1
  2c:	e006      	b.n	3c <GPIODirModeSet+0x3c>
  2e:	68fb      	ldr	r3, [r7, #12]
  30:	f503 6380 	add.w	r3, r3, #1024	; 0x400
  34:	6819      	ldr	r1, [r3, #0]
  36:	7afb      	ldrb	r3, [r7, #11]
  38:	43db      	mvns	r3, r3
  3a:	400b      	ands	r3, r1
  3c:	6013      	str	r3, [r2, #0]
  3e:	3714      	adds	r7, #20
  40:	46bd      	mov	sp, r7
  42:	f85d 7b04 	ldr.w	r7, [sp], #4
  46:	4770      	bx	lr

Disassembly of section .text.GPIODirModeGet:

00000000 <GPIODirModeGet>:
   0:	b480      	push	{r7}
   2:	b085      	sub	sp, #20
   4:	af00      	add	r7, sp, #0
   6:	6078      	str	r0, [r7, #4]
   8:	460b      	mov	r3, r1
   a:	70fb      	strb	r3, [r7, #3]
   c:	78fb      	ldrb	r3, [r7, #3]
   e:	2201      	movs	r2, #1
  10:	fa02 f303 	lsl.w	r3, r2, r3
  14:	70fb      	strb	r3, [r7, #3]
  16:	687b      	ldr	r3, [r7, #4]
  18:	f503 6380 	add.w	r3, r3, #1024	; 0x400
  1c:	681b      	ldr	r3, [r3, #0]
  1e:	60fb      	str	r3, [r7, #12]
  20:	78fa      	ldrb	r2, [r7, #3]
  22:	68fb      	ldr	r3, [r7, #12]
  24:	4013      	ands	r3, r2
  26:	2b00      	cmp	r3, #0
  28:	bf0c      	ite	eq
  2a:	2300      	moveq	r3, #0
  2c:	2301      	movne	r3, #1
  2e:	b2db      	uxtb	r3, r3
  30:	4618      	mov	r0, r3
  32:	3714      	adds	r7, #20
  34:	46bd      	mov	sp, r7
  36:	f85d 7b04 	ldr.w	r7, [sp], #4
  3a:	4770      	bx	lr

Disassembly of section .text.GPIOIntTypeSet:

00000000 <GPIOIntTypeSet>:
   0:	b480      	push	{r7}
   2:	b085      	sub	sp, #20
   4:	af00      	add	r7, sp, #0
   6:	60f8      	str	r0, [r7, #12]
   8:	460b      	mov	r3, r1
   a:	607a      	str	r2, [r7, #4]
   c:	72fb      	strb	r3, [r7, #11]
   e:	68fb      	ldr	r3, [r7, #12]
  10:	f503 6381 	add.w	r3, r3, #1032	; 0x408
  14:	461a      	mov	r2, r3
  16:	687b      	ldr	r3, [r7, #4]
  18:	f003 0301 	and.w	r3, r3, #1
  1c:	2b00      	cmp	r3, #0
  1e:	d006      	beq.n	2e <GPIOIntTypeSet+0x2e>
  20:	68fb      	ldr	r3, [r7, #12]
  22:	f503 6381 	add.w	r3, r3, #1032	; 0x408
  26:	6819      	ldr	r1, [r3, #0]
  28:	7afb      	ldrb	r3, [r7, #11]
  2a:	430b      	orrs	r3, r1
  2c:	e006      	b.n	3c <GPIOIntTypeSet+0x3c>
  2e:	68fb      	ldr	r3, [r7, #12]
  30:	f503 6381 	add.w	r3, r3, #1032	; 0x408
  34:	6819      	ldr	r1, [r3, #0]
  36:	7afb      	ldrb	r3, [r7, #11]
  38:	43db      	mvns	r3, r3
  3a:	400b      	ands	r3, r1
  3c:	6013      	str	r3, [r2, #0]
  3e:	68fb      	ldr	r3, [r7, #12]
  40:	f203 4304 	addw	r3, r3, #1028	; 0x404
  44:	461a      	mov	r2, r3
  46:	687b      	ldr	r3, [r7, #4]
  48:	f003 0302 	and.w	r3, r3, #2
  4c:	2b00      	cmp	r3, #0
  4e:	d006      	beq.n	5e <GPIOIntTypeSet+0x5e>
  50:	68fb      	ldr	r3, [r7, #12]
  52:	f203 4304 	addw	r3, r3, #1028	; 0x404
  56:	6819      	ldr	r1, [r3, #0]
  58:	7afb      	ldrb	r3, [r7, #11]
  5a:	430b      	orrs	r3, r1
  5c:	e006      	b.n	6c <GPIOIntTypeSet+0x6c>
  5e:	68fb      	ldr	r3, [r7, #12]
  60:	f203 4304 	addw	r3, r3, #1028	; 0x404
  64:	6819      	ldr	r1, [r3, #0]
  66:	7afb      	ldrb	r3, [r7, #11]
  68:	43db      	mvns	r3, r3
  6a:	400b      	ands	r3, r1
  6c:	6013      	str	r3, [r2, #0]
  6e:	68fb      	ldr	r3, [r7, #12]
  70:	f203 430c 	addw	r3, r3, #1036	; 0x40c
  74:	461a      	mov	r2, r3
  76:	687b      	ldr	r3, [r7, #4]
  78:	f003 0304 	and.w	r3, r3, #4
  7c:	2b00      	cmp	r3, #0
  7e:	d006      	beq.n	8e <GPIOIntTypeSet+0x8e>
  80:	68fb      	ldr	r3, [r7, #12]
  82:	f203 430c 	addw	r3, r3, #1036	; 0x40c
  86:	6819      	ldr	r1, [r3, #0]
  88:	7afb      	ldrb	r3, [r7, #11]
  8a:	430b      	orrs	r3, r1
  8c:	e006      	b.n	9c <GPIOIntTypeSet+0x9c>
  8e:	68fb      	ldr	r3, [r7, #12]
  90:	f203 430c 	addw	r3, r3, #1036	; 0x40c
  94:	6819      	ldr	r1, [r3, #0]
  96:	7afb      	ldrb	r3, [r7, #11]
  98:	43db      	mvns	r3, r3
  9a:	400b      	ands	r3, r1
  9c:	6013      	str	r3, [r2, #0]
  9e:	3714      	adds	r7, #20
  a0:	46bd      	mov	sp, r7
  a2:	f85d 7b04 	ldr.w	r7, [sp], #4
  a6:	4770      	bx	lr

Disassembly of section .text.GPIOIntTypeGet:

00000000 <GPIOIntTypeGet>:
   0:	b480      	push	{r7}
   2:	b087      	sub	sp, #28
   4:	af00      	add	r7, sp, #0
   6:	6078      	str	r0, [r7, #4]
   8:	460b      	mov	r3, r1
   a:	70fb      	strb	r3, [r7, #3]
   c:	78fb      	ldrb	r3, [r7, #3]
   e:	2201      	movs	r2, #1
  10:	fa02 f303 	lsl.w	r3, r2, r3
  14:	70fb      	strb	r3, [r7, #3]
  16:	687b      	ldr	r3, [r7, #4]
  18:	f503 6381 	add.w	r3, r3, #1032	; 0x408
  1c:	681b      	ldr	r3, [r3, #0]
  1e:	617b      	str	r3, [r7, #20]
  20:	687b      	ldr	r3, [r7, #4]
  22:	f203 4304 	addw	r3, r3, #1028	; 0x404
  26:	681b      	ldr	r3, [r3, #0]
  28:	613b      	str	r3, [r7, #16]
  2a:	687b      	ldr	r3, [r7, #4]
  2c:	f203 430c 	addw	r3, r3, #1036	; 0x40c
  30:	681b      	ldr	r3, [r3, #0]
  32:	60fb      	str	r3, [r7, #12]
  34:	78fa      	ldrb	r2, [r7, #3]
  36:	697b      	ldr	r3, [r7, #20]
  38:	4013      	ands	r3, r2
  3a:	2b00      	cmp	r3, #0
  3c:	bf0c      	ite	eq
  3e:	2300      	moveq	r3, #0
  40:	2301      	movne	r3, #1
  42:	b2db      	uxtb	r3, r3
  44:	461a      	mov	r2, r3
  46:	78f9      	ldrb	r1, [r7, #3]
  48:	693b      	ldr	r3, [r7, #16]
  4a:	400b      	ands	r3, r1
  4c:	2b00      	cmp	r3, #0
  4e:	d001      	beq.n	54 <GPIOIntTypeGet+0x54>
  50:	2302      	movs	r3, #2
  52:	e000      	b.n	56 <GPIOIntTypeGet+0x56>
  54:	2300      	movs	r3, #0
  56:	431a      	orrs	r2, r3
  58:	78f9      	ldrb	r1, [r7, #3]
  5a:	68fb      	ldr	r3, [r7, #12]
  5c:	400b      	ands	r3, r1
  5e:	2b00      	cmp	r3, #0
  60:	d001      	beq.n	66 <GPIOIntTypeGet+0x66>
  62:	2304      	movs	r3, #4
  64:	e000      	b.n	68 <GPIOIntTypeGet+0x68>
  66:	2300      	movs	r3, #0
  68:	4313      	orrs	r3, r2
  6a:	4618      	mov	r0, r3
  6c:	371c      	adds	r7, #28
  6e:	46bd      	mov	sp, r7
  70:	f85d 7b04 	ldr.w	r7, [sp], #4
  74:	4770      	bx	lr
  76:	bf00      	nop

Disassembly of section .text.GPIOIntEnable:

00000000 <GPIOIntEnable>:
   0:	b480      	push	{r7}
   2:	b083      	sub	sp, #12
   4:	af00      	add	r7, sp, #0
   6:	6078      	str	r0, [r7, #4]
   8:	6039      	str	r1, [r7, #0]
   a:	687b      	ldr	r3, [r7, #4]
   c:	f503 6382 	add.w	r3, r3, #1040	; 0x410
  10:	687a      	ldr	r2, [r7, #4]
  12:	f502 6282 	add.w	r2, r2, #1040	; 0x410
  16:	6811      	ldr	r1, [r2, #0]
  18:	683a      	ldr	r2, [r7, #0]
  1a:	430a      	orrs	r2, r1
  1c:	601a      	str	r2, [r3, #0]
  1e:	370c      	adds	r7, #12
  20:	46bd      	mov	sp, r7
  22:	f85d 7b04 	ldr.w	r7, [sp], #4
  26:	4770      	bx	lr

Disassembly of section .text.GPIOIntDisable:

00000000 <GPIOIntDisable>:
   0:	b480      	push	{r7}
   2:	b083      	sub	sp, #12
   4:	af00      	add	r7, sp, #0
   6:	6078      	str	r0, [r7, #4]
   8:	6039      	str	r1, [r7, #0]
   a:	687b      	ldr	r3, [r7, #4]
   c:	f503 6382 	add.w	r3, r3, #1040	; 0x410
  10:	687a      	ldr	r2, [r7, #4]
  12:	f502 6282 	add.w	r2, r2, #1040	; 0x410
  16:	6811      	ldr	r1, [r2, #0]
  18:	683a      	ldr	r2, [r7, #0]
  1a:	43d2      	mvns	r2, r2
  1c:	400a      	ands	r2, r1
  1e:	601a      	str	r2, [r3, #0]
  20:	370c      	adds	r7, #12
  22:	46bd      	mov	sp, r7
  24:	f85d 7b04 	ldr.w	r7, [sp], #4
  28:	4770      	bx	lr
  2a:	bf00      	nop

Disassembly of section .text.GPIOIntStatus:

00000000 <GPIOIntStatus>:
   0:	b480      	push	{r7}
   2:	b083      	sub	sp, #12
   4:	af00      	add	r7, sp, #0
   6:	6078      	str	r0, [r7, #4]
   8:	460b      	mov	r3, r1
   a:	70fb      	strb	r3, [r7, #3]
   c:	78fb      	ldrb	r3, [r7, #3]
   e:	2b00      	cmp	r3, #0
  10:	d004      	beq.n	1c <GPIOIntStatus+0x1c>
  12:	687b      	ldr	r3, [r7, #4]
  14:	f503 6383 	add.w	r3, r3, #1048	; 0x418
  18:	681b      	ldr	r3, [r3, #0]
  1a:	e003      	b.n	24 <GPIOIntStatus+0x24>
  1c:	687b      	ldr	r3, [r7, #4]
  1e:	f203 4314 	addw	r3, r3, #1044	; 0x414
  22:	681b      	ldr	r3, [r3, #0]
  24:	4618      	mov	r0, r3
  26:	370c      	adds	r7, #12
  28:	46bd      	mov	sp, r7
  2a:	f85d 7b04 	ldr.w	r7, [sp], #4
  2e:	4770      	bx	lr

Disassembly of section .text.GPIOIntClear:

00000000 <GPIOIntClear>:
   0:	b480      	push	{r7}
   2:	b083      	sub	sp, #12
   4:	af00      	add	r7, sp, #0
   6:	6078      	str	r0, [r7, #4]
   8:	6039      	str	r1, [r7, #0]
   a:	687b      	ldr	r3, [r7, #4]
   c:	f203 431c 	addw	r3, r3, #1052	; 0x41c
  10:	683a      	ldr	r2, [r7, #0]
  12:	601a      	str	r2, [r3, #0]
  14:	370c      	adds	r7, #12
  16:	46bd      	mov	sp, r7
  18:	f85d 7b04 	ldr.w	r7, [sp], #4
  1c:	4770      	bx	lr
  1e:	bf00      	nop

Disassembly of section .text.GPIOIntRegister:

00000000 <GPIOIntRegister>:
   0:	b580      	push	{r7, lr}
   2:	b082      	sub	sp, #8
   4:	af00      	add	r7, sp, #0
   6:	6078      	str	r0, [r7, #4]
   8:	6039      	str	r1, [r7, #0]
   a:	6878      	ldr	r0, [r7, #4]
   c:	f7ff fffe 	bl	0 <GPIOIntRegister>
  10:	4603      	mov	r3, r0
  12:	607b      	str	r3, [r7, #4]
  14:	6878      	ldr	r0, [r7, #4]
  16:	6839      	ldr	r1, [r7, #0]
  18:	f7ff fffe 	bl	0 <IntRegister>
  1c:	6878      	ldr	r0, [r7, #4]
  1e:	f7ff fffe 	bl	0 <IntEnable>
  22:	3708      	adds	r7, #8
  24:	46bd      	mov	sp, r7
  26:	bd80      	pop	{r7, pc}

Disassembly of section .text.GPIOIntUnregister:

00000000 <GPIOIntUnregister>:
   0:	b580      	push	{r7, lr}
   2:	b082      	sub	sp, #8
   4:	af00      	add	r7, sp, #0
   6:	6078      	str	r0, [r7, #4]
   8:	6878      	ldr	r0, [r7, #4]
   a:	f7ff fffe 	bl	0 <GPIOIntUnregister>
   e:	4603      	mov	r3, r0
  10:	607b      	str	r3, [r7, #4]
  12:	6878      	ldr	r0, [r7, #4]
  14:	f7ff fffe 	bl	0 <IntDisable>
  18:	6878      	ldr	r0, [r7, #4]
  1a:	f7ff fffe 	bl	0 <IntUnregister>
  1e:	3708      	adds	r7, #8
  20:	46bd      	mov	sp, r7
  22:	bd80      	pop	{r7, pc}

Disassembly of section .text.GPIOPinRead:

00000000 <GPIOPinRead>:
   0:	b480      	push	{r7}
   2:	b083      	sub	sp, #12
   4:	af00      	add	r7, sp, #0
   6:	6078      	str	r0, [r7, #4]
   8:	460b      	mov	r3, r1
   a:	70fb      	strb	r3, [r7, #3]
   c:	78fb      	ldrb	r3, [r7, #3]
   e:	009b      	lsls	r3, r3, #2
  10:	461a      	mov	r2, r3
  12:	687b      	ldr	r3, [r7, #4]
  14:	4413      	add	r3, r2
  16:	681b      	ldr	r3, [r3, #0]
  18:	4618      	mov	r0, r3
  1a:	370c      	adds	r7, #12
  1c:	46bd      	mov	sp, r7
  1e:	f85d 7b04 	ldr.w	r7, [sp], #4
  22:	4770      	bx	lr

Disassembly of section .text.GPIOPinWrite:

00000000 <GPIOPinWrite>:
   0:	b480      	push	{r7}
   2:	b083      	sub	sp, #12
   4:	af00      	add	r7, sp, #0
   6:	6078      	str	r0, [r7, #4]
   8:	4613      	mov	r3, r2
   a:	460a      	mov	r2, r1
   c:	70fa      	strb	r2, [r7, #3]
   e:	70bb      	strb	r3, [r7, #2]
  10:	78fb      	ldrb	r3, [r7, #3]
  12:	009b      	lsls	r3, r3, #2
  14:	461a      	mov	r2, r3
  16:	687b      	ldr	r3, [r7, #4]
  18:	4413      	add	r3, r2
  1a:	78ba      	ldrb	r2, [r7, #2]
  1c:	601a      	str	r2, [r3, #0]
  1e:	370c      	adds	r7, #12
  20:	46bd      	mov	sp, r7
  22:	f85d 7b04 	ldr.w	r7, [sp], #4
  26:	4770      	bx	lr

Disassembly of section .text.GPIODMATriggerEnable:

00000000 <GPIODMATriggerEnable>:
   0:	b480      	push	{r7}
   2:	b083      	sub	sp, #12
   4:	af00      	add	r7, sp, #0
   6:	6078      	str	r0, [r7, #4]
   8:	687b      	ldr	r3, [r7, #4]
   a:	f1b3 2f40 	cmp.w	r3, #1073758208	; 0x40004000
   e:	d10c      	bne.n	2a <GPIODMATriggerEnable+0x2a>
  10:	f247 03c8 	movw	r3, #28872	; 0x70c8
  14:	f2c4 030f 	movt	r3, #16399	; 0x400f
  18:	f247 02c8 	movw	r2, #28872	; 0x70c8
  1c:	f2c4 020f 	movt	r2, #16399	; 0x400f
  20:	6812      	ldr	r2, [r2, #0]
  22:	f042 0201 	orr.w	r2, r2, #1
  26:	601a      	str	r2, [r3, #0]
  28:	e03a      	b.n	a0 <GPIODMATriggerEnable+0xa0>
  2a:	687a      	ldr	r2, [r7, #4]
  2c:	f44f 43a0 	mov.w	r3, #20480	; 0x5000
  30:	f2c4 0300 	movt	r3, #16384	; 0x4000
  34:	429a      	cmp	r2, r3
  36:	d10c      	bne.n	52 <GPIODMATriggerEnable+0x52>
  38:	f247 03c8 	movw	r3, #28872	; 0x70c8
  3c:	f2c4 030f 	movt	r3, #16399	; 0x400f
  40:	f247 02c8 	movw	r2, #28872	; 0x70c8
  44:	f2c4 020f 	movt	r2, #16399	; 0x400f
  48:	6812      	ldr	r2, [r2, #0]
  4a:	f042 0202 	orr.w	r2, r2, #2
  4e:	601a      	str	r2, [r3, #0]
  50:	e026      	b.n	a0 <GPIODMATriggerEnable+0xa0>
  52:	687a      	ldr	r2, [r7, #4]
  54:	f44f 43c0 	mov.w	r3, #24576	; 0x6000
  58:	f2c4 0300 	movt	r3, #16384	; 0x4000
  5c:	429a      	cmp	r2, r3
  5e:	d10c      	bne.n	7a <GPIODMATriggerEnable+0x7a>
  60:	f247 03c8 	movw	r3, #28872	; 0x70c8
  64:	f2c4 030f 	movt	r3, #16399	; 0x400f
  68:	f247 02c8 	movw	r2, #28872	; 0x70c8
  6c:	f2c4 020f 	movt	r2, #16399	; 0x400f
  70:	6812      	ldr	r2, [r2, #0]
  72:	f042 0204 	orr.w	r2, r2, #4
  76:	601a      	str	r2, [r3, #0]
  78:	e012      	b.n	a0 <GPIODMATriggerEnable+0xa0>
  7a:	687a      	ldr	r2, [r7, #4]
  7c:	f44f 43e0 	mov.w	r3, #28672	; 0x7000
  80:	f2c4 0300 	movt	r3, #16384	; 0x4000
  84:	429a      	cmp	r2, r3
  86:	d10b      	bne.n	a0 <GPIODMATriggerEnable+0xa0>
  88:	f247 03c8 	movw	r3, #28872	; 0x70c8
  8c:	f2c4 030f 	movt	r3, #16399	; 0x400f
  90:	f247 02c8 	movw	r2, #28872	; 0x70c8
  94:	f2c4 020f 	movt	r2, #16399	; 0x400f
  98:	6812      	ldr	r2, [r2, #0]
  9a:	f042 0208 	orr.w	r2, r2, #8
  9e:	601a      	str	r2, [r3, #0]
  a0:	370c      	adds	r7, #12
  a2:	46bd      	mov	sp, r7
  a4:	f85d 7b04 	ldr.w	r7, [sp], #4
  a8:	4770      	bx	lr
  aa:	bf00      	nop

Disassembly of section .text.GPIODMATriggerDisable:

00000000 <GPIODMATriggerDisable>:
   0:	b480      	push	{r7}
   2:	b083      	sub	sp, #12
   4:	af00      	add	r7, sp, #0
   6:	6078      	str	r0, [r7, #4]
   8:	687b      	ldr	r3, [r7, #4]
   a:	f1b3 2f40 	cmp.w	r3, #1073758208	; 0x40004000
   e:	d10c      	bne.n	2a <GPIODMATriggerDisable+0x2a>
  10:	f247 03c8 	movw	r3, #28872	; 0x70c8
  14:	f2c4 030f 	movt	r3, #16399	; 0x400f
  18:	f247 02c8 	movw	r2, #28872	; 0x70c8
  1c:	f2c4 020f 	movt	r2, #16399	; 0x400f
  20:	6812      	ldr	r2, [r2, #0]
  22:	f022 0201 	bic.w	r2, r2, #1
  26:	601a      	str	r2, [r3, #0]
  28:	e03a      	b.n	a0 <GPIODMATriggerDisable+0xa0>
  2a:	687a      	ldr	r2, [r7, #4]
  2c:	f44f 43a0 	mov.w	r3, #20480	; 0x5000
  30:	f2c4 0300 	movt	r3, #16384	; 0x4000
  34:	429a      	cmp	r2, r3
  36:	d10c      	bne.n	52 <GPIODMATriggerDisable+0x52>
  38:	f247 03c8 	movw	r3, #28872	; 0x70c8
  3c:	f2c4 030f 	movt	r3, #16399	; 0x400f
  40:	f247 02c8 	movw	r2, #28872	; 0x70c8
  44:	f2c4 020f 	movt	r2, #16399	; 0x400f
  48:	6812      	ldr	r2, [r2, #0]
  4a:	f022 0202 	bic.w	r2, r2, #2
  4e:	601a      	str	r2, [r3, #0]
  50:	e026      	b.n	a0 <GPIODMATriggerDisable+0xa0>
  52:	687a      	ldr	r2, [r7, #4]
  54:	f44f 43c0 	mov.w	r3, #24576	; 0x6000
  58:	f2c4 0300 	movt	r3, #16384	; 0x4000
  5c:	429a      	cmp	r2, r3
  5e:	d10c      	bne.n	7a <GPIODMATriggerDisable+0x7a>
  60:	f247 03c8 	movw	r3, #28872	; 0x70c8
  64:	f2c4 030f 	movt	r3, #16399	; 0x400f
  68:	f247 02c8 	movw	r2, #28872	; 0x70c8
  6c:	f2c4 020f 	movt	r2, #16399	; 0x400f
  70:	6812      	ldr	r2, [r2, #0]
  72:	f022 0204 	bic.w	r2, r2, #4
  76:	601a      	str	r2, [r3, #0]
  78:	e012      	b.n	a0 <GPIODMATriggerDisable+0xa0>
  7a:	687a      	ldr	r2, [r7, #4]
  7c:	f44f 43e0 	mov.w	r3, #28672	; 0x7000
  80:	f2c4 0300 	movt	r3, #16384	; 0x4000
  84:	429a      	cmp	r2, r3
  86:	d10b      	bne.n	a0 <GPIODMATriggerDisable+0xa0>
  88:	f247 03c8 	movw	r3, #28872	; 0x70c8
  8c:	f2c4 030f 	movt	r3, #16399	; 0x400f
  90:	f247 02c8 	movw	r2, #28872	; 0x70c8
  94:	f2c4 020f 	movt	r2, #16399	; 0x400f
  98:	6812      	ldr	r2, [r2, #0]
  9a:	f022 0208 	bic.w	r2, r2, #8
  9e:	601a      	str	r2, [r3, #0]
  a0:	370c      	adds	r7, #12
  a2:	46bd      	mov	sp, r7
  a4:	f85d 7b04 	ldr.w	r7, [sp], #4
  a8:	4770      	bx	lr
  aa:	bf00      	nop

Disassembly of section .text.HwSpinLockAcquire:

00000000 <HwSpinLockAcquire>:
   0:	b480      	push	{r7}
   2:	b087      	sub	sp, #28
   4:	af00      	add	r7, sp, #0
   6:	6078      	str	r0, [r7, #4]
   8:	687b      	ldr	r3, [r7, #4]
   a:	0c1b      	lsrs	r3, r3, #16
   c:	f3c3 030b 	ubfx	r3, r3, #0, #12
  10:	617b      	str	r3, [r7, #20]
  12:	f247 0304 	movw	r3, #28676	; 0x7004
  16:	f2c4 030f 	movt	r3, #16399	; 0x400f
  1a:	613b      	str	r3, [r7, #16]
  1c:	697b      	ldr	r3, [r7, #20]
  1e:	2202      	movs	r2, #2
  20:	fa02 f303 	lsl.w	r3, r2, r3
  24:	43db      	mvns	r3, r3
  26:	60fb      	str	r3, [r7, #12]
  28:	693b      	ldr	r3, [r7, #16]
  2a:	68fa      	ldr	r2, [r7, #12]
  2c:	601a      	str	r2, [r3, #0]
  2e:	693b      	ldr	r3, [r7, #16]
  30:	681a      	ldr	r2, [r3, #0]
  32:	697b      	ldr	r3, [r7, #20]
  34:	2101      	movs	r1, #1
  36:	fa01 f303 	lsl.w	r3, r1, r3
  3a:	4013      	ands	r3, r2
  3c:	2b00      	cmp	r3, #0
  3e:	d0f3      	beq.n	28 <HwSpinLockAcquire+0x28>
  40:	371c      	adds	r7, #28
  42:	46bd      	mov	sp, r7
  44:	f85d 7b04 	ldr.w	r7, [sp], #4
  48:	4770      	bx	lr
  4a:	bf00      	nop

Disassembly of section .text.HwSpinLockTryAcquire:

00000000 <HwSpinLockTryAcquire>:
   0:	b480      	push	{r7}
   2:	b087      	sub	sp, #28
   4:	af00      	add	r7, sp, #0
   6:	6078      	str	r0, [r7, #4]
   8:	6039      	str	r1, [r7, #0]
   a:	687b      	ldr	r3, [r7, #4]
   c:	0c1b      	lsrs	r3, r3, #16
   e:	f3c3 030b 	ubfx	r3, r3, #0, #12
  12:	617b      	str	r3, [r7, #20]
  14:	f247 0304 	movw	r3, #28676	; 0x7004
  18:	f2c4 030f 	movt	r3, #16399	; 0x400f
  1c:	613b      	str	r3, [r7, #16]
  1e:	697b      	ldr	r3, [r7, #20]
  20:	2202      	movs	r2, #2
  22:	fa02 f303 	lsl.w	r3, r2, r3
  26:	43db      	mvns	r3, r3
  28:	60fb      	str	r3, [r7, #12]
  2a:	683b      	ldr	r3, [r7, #0]
  2c:	2b00      	cmp	r3, #0
  2e:	d101      	bne.n	34 <HwSpinLockTryAcquire+0x34>
  30:	2301      	movs	r3, #1
  32:	603b      	str	r3, [r7, #0]
  34:	693b      	ldr	r3, [r7, #16]
  36:	68fa      	ldr	r2, [r7, #12]
  38:	601a      	str	r2, [r3, #0]
  3a:	683b      	ldr	r3, [r7, #0]
  3c:	3b01      	subs	r3, #1
  3e:	603b      	str	r3, [r7, #0]
  40:	693b      	ldr	r3, [r7, #16]
  42:	681a      	ldr	r2, [r3, #0]
  44:	697b      	ldr	r3, [r7, #20]
  46:	2101      	movs	r1, #1
  48:	fa01 f303 	lsl.w	r3, r1, r3
  4c:	4013      	ands	r3, r2
  4e:	2b00      	cmp	r3, #0
  50:	d102      	bne.n	58 <HwSpinLockTryAcquire+0x58>
  52:	683b      	ldr	r3, [r7, #0]
  54:	2b00      	cmp	r3, #0
  56:	d1ed      	bne.n	34 <HwSpinLockTryAcquire+0x34>
  58:	693b      	ldr	r3, [r7, #16]
  5a:	681a      	ldr	r2, [r3, #0]
  5c:	697b      	ldr	r3, [r7, #20]
  5e:	2101      	movs	r1, #1
  60:	fa01 f303 	lsl.w	r3, r1, r3
  64:	4013      	ands	r3, r2
  66:	2b00      	cmp	r3, #0
  68:	d001      	beq.n	6e <HwSpinLockTryAcquire+0x6e>
  6a:	2300      	movs	r3, #0
  6c:	e001      	b.n	72 <HwSpinLockTryAcquire+0x72>
  6e:	f04f 33ff 	mov.w	r3, #4294967295
  72:	4618      	mov	r0, r3
  74:	371c      	adds	r7, #28
  76:	46bd      	mov	sp, r7
  78:	f85d 7b04 	ldr.w	r7, [sp], #4
  7c:	4770      	bx	lr
  7e:	bf00      	nop

Disassembly of section .text.HwSpinLockRelease:

00000000 <HwSpinLockRelease>:
   0:	b480      	push	{r7}
   2:	b085      	sub	sp, #20
   4:	af00      	add	r7, sp, #0
   6:	6078      	str	r0, [r7, #4]
   8:	687b      	ldr	r3, [r7, #4]
   a:	0c1b      	lsrs	r3, r3, #16
   c:	b2db      	uxtb	r3, r3
   e:	60fb      	str	r3, [r7, #12]
  10:	f247 0304 	movw	r3, #28676	; 0x7004
  14:	f2c4 030f 	movt	r3, #16399	; 0x400f
  18:	681a      	ldr	r2, [r3, #0]
  1a:	68fb      	ldr	r3, [r7, #12]
  1c:	2101      	movs	r1, #1
  1e:	fa01 f303 	lsl.w	r3, r1, r3
  22:	4013      	ands	r3, r2
  24:	2b00      	cmp	r3, #0
  26:	d00b      	beq.n	40 <HwSpinLockRelease+0x40>
  28:	68fb      	ldr	r3, [r7, #12]
  2a:	2203      	movs	r2, #3
  2c:	fa02 f303 	lsl.w	r3, r2, r3
  30:	43db      	mvns	r3, r3
  32:	60bb      	str	r3, [r7, #8]
  34:	f247 0304 	movw	r3, #28676	; 0x7004
  38:	f2c4 030f 	movt	r3, #16399	; 0x400f
  3c:	68ba      	ldr	r2, [r7, #8]
  3e:	601a      	str	r2, [r3, #0]
  40:	3714      	adds	r7, #20
  42:	46bd      	mov	sp, r7
  44:	f85d 7b04 	ldr.w	r7, [sp], #4
  48:	4770      	bx	lr
  4a:	bf00      	nop

Disassembly of section .text.HwSpinLockTest:

00000000 <HwSpinLockTest>:
   0:	b480      	push	{r7}
   2:	b085      	sub	sp, #20
   4:	af00      	add	r7, sp, #0
   6:	6078      	str	r0, [r7, #4]
   8:	460b      	mov	r3, r1
   a:	70fb      	strb	r3, [r7, #3]
   c:	78fb      	ldrb	r3, [r7, #3]
   e:	2b00      	cmp	r3, #0
  10:	d00e      	beq.n	30 <HwSpinLockTest+0x30>
  12:	687b      	ldr	r3, [r7, #4]
  14:	0c1b      	lsrs	r3, r3, #16
  16:	b2db      	uxtb	r3, r3
  18:	60bb      	str	r3, [r7, #8]
  1a:	f247 0304 	movw	r3, #28676	; 0x7004
  1e:	f2c4 030f 	movt	r3, #16399	; 0x400f
  22:	681a      	ldr	r2, [r3, #0]
  24:	68bb      	ldr	r3, [r7, #8]
  26:	fa22 f303 	lsr.w	r3, r2, r3
  2a:	f003 0303 	and.w	r3, r3, #3
  2e:	e01f      	b.n	70 <HwSpinLockTest+0x70>
  30:	687b      	ldr	r3, [r7, #4]
  32:	0e1b      	lsrs	r3, r3, #24
  34:	60bb      	str	r3, [r7, #8]
  36:	687b      	ldr	r3, [r7, #4]
  38:	f003 0301 	and.w	r3, r3, #1
  3c:	2b00      	cmp	r3, #0
  3e:	d00b      	beq.n	58 <HwSpinLockTest+0x58>
  40:	f247 03d4 	movw	r3, #28884	; 0x70d4
  44:	f2c4 030f 	movt	r3, #16399	; 0x400f
  48:	681a      	ldr	r2, [r3, #0]
  4a:	68bb      	ldr	r3, [r7, #8]
  4c:	fa22 f303 	lsr.w	r3, r2, r3
  50:	f003 0303 	and.w	r3, r3, #3
  54:	60fb      	str	r3, [r7, #12]
  56:	e00a      	b.n	6e <HwSpinLockTest+0x6e>
  58:	f247 03d8 	movw	r3, #28888	; 0x70d8
  5c:	f2c4 030f 	movt	r3, #16399	; 0x400f
  60:	681a      	ldr	r2, [r3, #0]
  62:	68bb      	ldr	r3, [r7, #8]
  64:	fa22 f303 	lsr.w	r3, r2, r3
  68:	f003 0303 	and.w	r3, r3, #3
  6c:	60fb      	str	r3, [r7, #12]
  6e:	68fb      	ldr	r3, [r7, #12]
  70:	4618      	mov	r0, r3
  72:	3714      	adds	r7, #20
  74:	46bd      	mov	sp, r7
  76:	f85d 7b04 	ldr.w	r7, [sp], #4
  7a:	4770      	bx	lr

Disassembly of section .text._I2CIntNumberGet:

00000000 <_I2CIntNumberGet>:
   0:	b480      	push	{r7}
   2:	b087      	sub	sp, #28
   4:	af00      	add	r7, sp, #0
   6:	6078      	str	r0, [r7, #4]
   8:	f240 0300 	movw	r3, #0
   c:	f2c0 0300 	movt	r3, #0
  10:	613b      	str	r3, [r7, #16]
  12:	2301      	movs	r3, #1
  14:	60fb      	str	r3, [r7, #12]
  16:	2300      	movs	r3, #0
  18:	617b      	str	r3, [r7, #20]
  1a:	e010      	b.n	3e <_I2CIntNumberGet+0x3e>
  1c:	697b      	ldr	r3, [r7, #20]
  1e:	00db      	lsls	r3, r3, #3
  20:	693a      	ldr	r2, [r7, #16]
  22:	4413      	add	r3, r2
  24:	681a      	ldr	r2, [r3, #0]
  26:	687b      	ldr	r3, [r7, #4]
  28:	429a      	cmp	r2, r3
  2a:	d105      	bne.n	38 <_I2CIntNumberGet+0x38>
  2c:	697b      	ldr	r3, [r7, #20]
  2e:	00db      	lsls	r3, r3, #3
  30:	693a      	ldr	r2, [r7, #16]
  32:	4413      	add	r3, r2
  34:	685b      	ldr	r3, [r3, #4]
  36:	e007      	b.n	48 <_I2CIntNumberGet+0x48>
  38:	697b      	ldr	r3, [r7, #20]
  3a:	3301      	adds	r3, #1
  3c:	617b      	str	r3, [r7, #20]
  3e:	697a      	ldr	r2, [r7, #20]
  40:	68fb      	ldr	r3, [r7, #12]
  42:	429a      	cmp	r2, r3
  44:	dbea      	blt.n	1c <_I2CIntNumberGet+0x1c>
  46:	2300      	movs	r3, #0
  48:	4618      	mov	r0, r3
  4a:	371c      	adds	r7, #28
  4c:	46bd      	mov	sp, r7
  4e:	f85d 7b04 	ldr.w	r7, [sp], #4
  52:	4770      	bx	lr

Disassembly of section .text.I2CMasterInitExpClk:

00000000 <I2CMasterInitExpClk>:
   0:	b580      	push	{r7, lr}
   2:	b086      	sub	sp, #24
   4:	af00      	add	r7, sp, #0
   6:	60f8      	str	r0, [r7, #12]
   8:	60b9      	str	r1, [r7, #8]
   a:	4613      	mov	r3, r2
   c:	71fb      	strb	r3, [r7, #7]
   e:	68f8      	ldr	r0, [r7, #12]
  10:	f7ff fffe 	bl	0 <I2CMasterInitExpClk>
  14:	79fb      	ldrb	r3, [r7, #7]
  16:	2b00      	cmp	r3, #0
  18:	d005      	beq.n	26 <I2CMasterInitExpClk+0x26>
  1a:	f44f 53d4 	mov.w	r3, #6784	; 0x1a80
  1e:	f2c0 0306 	movt	r3, #6
  22:	617b      	str	r3, [r7, #20]
  24:	e004      	b.n	30 <I2CMasterInitExpClk+0x30>
  26:	f248 63a0 	movw	r3, #34464	; 0x86a0
  2a:	f2c0 0301 	movt	r3, #1
  2e:	617b      	str	r3, [r7, #20]
  30:	697a      	ldr	r2, [r7, #20]
  32:	4613      	mov	r3, r2
  34:	009b      	lsls	r3, r3, #2
  36:	4413      	add	r3, r2
  38:	009b      	lsls	r3, r3, #2
  3a:	461a      	mov	r2, r3
  3c:	68bb      	ldr	r3, [r7, #8]
  3e:	4413      	add	r3, r2
  40:	1e59      	subs	r1, r3, #1
  42:	697a      	ldr	r2, [r7, #20]
  44:	4613      	mov	r3, r2
  46:	009b      	lsls	r3, r3, #2
  48:	4413      	add	r3, r2
  4a:	009b      	lsls	r3, r3, #2
  4c:	fbb1 f3f3 	udiv	r3, r1, r3
  50:	3b01      	subs	r3, #1
  52:	613b      	str	r3, [r7, #16]
  54:	68fb      	ldr	r3, [r7, #12]
  56:	330c      	adds	r3, #12
  58:	693a      	ldr	r2, [r7, #16]
  5a:	601a      	str	r2, [r3, #0]
  5c:	68fb      	ldr	r3, [r7, #12]
  5e:	f503 637c 	add.w	r3, r3, #4032	; 0xfc0
  62:	681b      	ldr	r3, [r3, #0]
  64:	f003 0301 	and.w	r3, r3, #1
  68:	2b00      	cmp	r3, #0
  6a:	d014      	beq.n	96 <I2CMasterInitExpClk+0x96>
  6c:	68ba      	ldr	r2, [r7, #8]
  6e:	f244 737f 	movw	r3, #18303	; 0x477f
  72:	f2c0 1337 	movt	r3, #311	; 0x137
  76:	4413      	add	r3, r2
  78:	f24d 027d 	movw	r2, #53373	; 0xd07d
  7c:	f6c6 1244 	movt	r2, #26948	; 0x6944
  80:	fba2 1303 	umull	r1, r3, r2, r3
  84:	0ddb      	lsrs	r3, r3, #23
  86:	3b01      	subs	r3, #1
  88:	613b      	str	r3, [r7, #16]
  8a:	68fb      	ldr	r3, [r7, #12]
  8c:	330c      	adds	r3, #12
  8e:	693a      	ldr	r2, [r7, #16]
  90:	f042 0280 	orr.w	r2, r2, #128	; 0x80
  94:	601a      	str	r2, [r3, #0]
  96:	3718      	adds	r7, #24
  98:	46bd      	mov	sp, r7
  9a:	bd80      	pop	{r7, pc}

Disassembly of section .text.I2CSlaveInit:

00000000 <I2CSlaveInit>:
   0:	b580      	push	{r7, lr}
   2:	b082      	sub	sp, #8
   4:	af00      	add	r7, sp, #0
   6:	6078      	str	r0, [r7, #4]
   8:	460b      	mov	r3, r1
   a:	70fb      	strb	r3, [r7, #3]
   c:	6878      	ldr	r0, [r7, #4]
   e:	f7ff fffe 	bl	0 <I2CSlaveInit>
  12:	687b      	ldr	r3, [r7, #4]
  14:	f503 6300 	add.w	r3, r3, #2048	; 0x800
  18:	78fa      	ldrb	r2, [r7, #3]
  1a:	601a      	str	r2, [r3, #0]
  1c:	3708      	adds	r7, #8
  1e:	46bd      	mov	sp, r7
  20:	bd80      	pop	{r7, pc}
  22:	bf00      	nop

Disassembly of section .text.I2CSlaveAddressSet:

00000000 <I2CSlaveAddressSet>:
   0:	b480      	push	{r7}
   2:	b083      	sub	sp, #12
   4:	af00      	add	r7, sp, #0
   6:	6078      	str	r0, [r7, #4]
   8:	4613      	mov	r3, r2
   a:	460a      	mov	r2, r1
   c:	70fa      	strb	r2, [r7, #3]
   e:	70bb      	strb	r3, [r7, #2]
  10:	78fb      	ldrb	r3, [r7, #3]
  12:	2b00      	cmp	r3, #0
  14:	d002      	beq.n	1c <I2CSlaveAddressSet+0x1c>
  16:	2b01      	cmp	r3, #1
  18:	d006      	beq.n	28 <I2CSlaveAddressSet+0x28>
  1a:	e00e      	b.n	3a <I2CSlaveAddressSet+0x3a>
  1c:	687b      	ldr	r3, [r7, #4]
  1e:	f503 6300 	add.w	r3, r3, #2048	; 0x800
  22:	78ba      	ldrb	r2, [r7, #2]
  24:	601a      	str	r2, [r3, #0]
  26:	e008      	b.n	3a <I2CSlaveAddressSet+0x3a>
  28:	687b      	ldr	r3, [r7, #4]
  2a:	f603 031c 	addw	r3, r3, #2076	; 0x81c
  2e:	78ba      	ldrb	r2, [r7, #2]
  30:	f062 027f 	orn	r2, r2, #127	; 0x7f
  34:	b2d2      	uxtb	r2, r2
  36:	601a      	str	r2, [r3, #0]
  38:	bf00      	nop
  3a:	370c      	adds	r7, #12
  3c:	46bd      	mov	sp, r7
  3e:	f85d 7b04 	ldr.w	r7, [sp], #4
  42:	4770      	bx	lr

Disassembly of section .text.I2CMasterEnable:

00000000 <I2CMasterEnable>:
   0:	b480      	push	{r7}
   2:	b083      	sub	sp, #12
   4:	af00      	add	r7, sp, #0
   6:	6078      	str	r0, [r7, #4]
   8:	687b      	ldr	r3, [r7, #4]
   a:	3320      	adds	r3, #32
   c:	687a      	ldr	r2, [r7, #4]
   e:	3220      	adds	r2, #32
  10:	6812      	ldr	r2, [r2, #0]
  12:	f042 0210 	orr.w	r2, r2, #16
  16:	601a      	str	r2, [r3, #0]
  18:	370c      	adds	r7, #12
  1a:	46bd      	mov	sp, r7
  1c:	f85d 7b04 	ldr.w	r7, [sp], #4
  20:	4770      	bx	lr
  22:	bf00      	nop

Disassembly of section .text.I2CSlaveEnable:

00000000 <I2CSlaveEnable>:
   0:	b480      	push	{r7}
   2:	b083      	sub	sp, #12
   4:	af00      	add	r7, sp, #0
   6:	6078      	str	r0, [r7, #4]
   8:	687b      	ldr	r3, [r7, #4]
   a:	3320      	adds	r3, #32
   c:	687a      	ldr	r2, [r7, #4]
   e:	3220      	adds	r2, #32
  10:	6812      	ldr	r2, [r2, #0]
  12:	f042 0220 	orr.w	r2, r2, #32
  16:	601a      	str	r2, [r3, #0]
  18:	687b      	ldr	r3, [r7, #4]
  1a:	f603 0304 	addw	r3, r3, #2052	; 0x804
  1e:	2201      	movs	r2, #1
  20:	601a      	str	r2, [r3, #0]
  22:	370c      	adds	r7, #12
  24:	46bd      	mov	sp, r7
  26:	f85d 7b04 	ldr.w	r7, [sp], #4
  2a:	4770      	bx	lr

Disassembly of section .text.I2CMasterDisable:

00000000 <I2CMasterDisable>:
   0:	b480      	push	{r7}
   2:	b083      	sub	sp, #12
   4:	af00      	add	r7, sp, #0
   6:	6078      	str	r0, [r7, #4]
   8:	687b      	ldr	r3, [r7, #4]
   a:	3320      	adds	r3, #32
   c:	687a      	ldr	r2, [r7, #4]
   e:	3220      	adds	r2, #32
  10:	6812      	ldr	r2, [r2, #0]
  12:	f022 0210 	bic.w	r2, r2, #16
  16:	601a      	str	r2, [r3, #0]
  18:	370c      	adds	r7, #12
  1a:	46bd      	mov	sp, r7
  1c:	f85d 7b04 	ldr.w	r7, [sp], #4
  20:	4770      	bx	lr
  22:	bf00      	nop

Disassembly of section .text.I2CSlaveDisable:

00000000 <I2CSlaveDisable>:
   0:	b480      	push	{r7}
   2:	b083      	sub	sp, #12
   4:	af00      	add	r7, sp, #0
   6:	6078      	str	r0, [r7, #4]
   8:	687b      	ldr	r3, [r7, #4]
   a:	f603 0304 	addw	r3, r3, #2052	; 0x804
   e:	2200      	movs	r2, #0
  10:	601a      	str	r2, [r3, #0]
  12:	687b      	ldr	r3, [r7, #4]
  14:	3320      	adds	r3, #32
  16:	687a      	ldr	r2, [r7, #4]
  18:	3220      	adds	r2, #32
  1a:	6812      	ldr	r2, [r2, #0]
  1c:	f022 0220 	bic.w	r2, r2, #32
  20:	601a      	str	r2, [r3, #0]
  22:	370c      	adds	r7, #12
  24:	46bd      	mov	sp, r7
  26:	f85d 7b04 	ldr.w	r7, [sp], #4
  2a:	4770      	bx	lr

Disassembly of section .text.I2CIntRegister:

00000000 <I2CIntRegister>:
   0:	b580      	push	{r7, lr}
   2:	b084      	sub	sp, #16
   4:	af00      	add	r7, sp, #0
   6:	6078      	str	r0, [r7, #4]
   8:	6039      	str	r1, [r7, #0]
   a:	6878      	ldr	r0, [r7, #4]
   c:	f7ff fffe 	bl	0 <I2CIntRegister>
  10:	60f8      	str	r0, [r7, #12]
  12:	68f8      	ldr	r0, [r7, #12]
  14:	6839      	ldr	r1, [r7, #0]
  16:	f7ff fffe 	bl	0 <IntRegister>
  1a:	68f8      	ldr	r0, [r7, #12]
  1c:	f7ff fffe 	bl	0 <IntEnable>
  20:	3710      	adds	r7, #16
  22:	46bd      	mov	sp, r7
  24:	bd80      	pop	{r7, pc}
  26:	bf00      	nop

Disassembly of section .text.I2CIntUnregister:

00000000 <I2CIntUnregister>:
   0:	b580      	push	{r7, lr}
   2:	b084      	sub	sp, #16
   4:	af00      	add	r7, sp, #0
   6:	6078      	str	r0, [r7, #4]
   8:	6878      	ldr	r0, [r7, #4]
   a:	f7ff fffe 	bl	0 <I2CIntUnregister>
   e:	60f8      	str	r0, [r7, #12]
  10:	68f8      	ldr	r0, [r7, #12]
  12:	f7ff fffe 	bl	0 <IntDisable>
  16:	68f8      	ldr	r0, [r7, #12]
  18:	f7ff fffe 	bl	0 <IntUnregister>
  1c:	3710      	adds	r7, #16
  1e:	46bd      	mov	sp, r7
  20:	bd80      	pop	{r7, pc}
  22:	bf00      	nop

Disassembly of section .text.I2CMasterIntEnable:

00000000 <I2CMasterIntEnable>:
   0:	b480      	push	{r7}
   2:	b083      	sub	sp, #12
   4:	af00      	add	r7, sp, #0
   6:	6078      	str	r0, [r7, #4]
   8:	687b      	ldr	r3, [r7, #4]
   a:	3310      	adds	r3, #16
   c:	2201      	movs	r2, #1
   e:	601a      	str	r2, [r3, #0]
  10:	370c      	adds	r7, #12
  12:	46bd      	mov	sp, r7
  14:	f85d 7b04 	ldr.w	r7, [sp], #4
  18:	4770      	bx	lr
  1a:	bf00      	nop

Disassembly of section .text.I2CMasterIntEnableEx:

00000000 <I2CMasterIntEnableEx>:
   0:	b480      	push	{r7}
   2:	b083      	sub	sp, #12
   4:	af00      	add	r7, sp, #0
   6:	6078      	str	r0, [r7, #4]
   8:	6039      	str	r1, [r7, #0]
   a:	687b      	ldr	r3, [r7, #4]
   c:	3310      	adds	r3, #16
   e:	687a      	ldr	r2, [r7, #4]
  10:	3210      	adds	r2, #16
  12:	6811      	ldr	r1, [r2, #0]
  14:	683a      	ldr	r2, [r7, #0]
  16:	430a      	orrs	r2, r1
  18:	601a      	str	r2, [r3, #0]
  1a:	370c      	adds	r7, #12
  1c:	46bd      	mov	sp, r7
  1e:	f85d 7b04 	ldr.w	r7, [sp], #4
  22:	4770      	bx	lr

Disassembly of section .text.I2CSlaveIntEnable:

00000000 <I2CSlaveIntEnable>:
   0:	b480      	push	{r7}
   2:	b083      	sub	sp, #12
   4:	af00      	add	r7, sp, #0
   6:	6078      	str	r0, [r7, #4]
   8:	687b      	ldr	r3, [r7, #4]
   a:	f603 030c 	addw	r3, r3, #2060	; 0x80c
   e:	687a      	ldr	r2, [r7, #4]
  10:	f602 020c 	addw	r2, r2, #2060	; 0x80c
  14:	6812      	ldr	r2, [r2, #0]
  16:	f042 0201 	orr.w	r2, r2, #1
  1a:	601a      	str	r2, [r3, #0]
  1c:	370c      	adds	r7, #12
  1e:	46bd      	mov	sp, r7
  20:	f85d 7b04 	ldr.w	r7, [sp], #4
  24:	4770      	bx	lr
  26:	bf00      	nop

Disassembly of section .text.I2CSlaveIntEnableEx:

00000000 <I2CSlaveIntEnableEx>:
   0:	b480      	push	{r7}
   2:	b083      	sub	sp, #12
   4:	af00      	add	r7, sp, #0
   6:	6078      	str	r0, [r7, #4]
   8:	6039      	str	r1, [r7, #0]
   a:	687b      	ldr	r3, [r7, #4]
   c:	f603 030c 	addw	r3, r3, #2060	; 0x80c
  10:	687a      	ldr	r2, [r7, #4]
  12:	f602 020c 	addw	r2, r2, #2060	; 0x80c
  16:	6811      	ldr	r1, [r2, #0]
  18:	683a      	ldr	r2, [r7, #0]
  1a:	430a      	orrs	r2, r1
  1c:	601a      	str	r2, [r3, #0]
  1e:	370c      	adds	r7, #12
  20:	46bd      	mov	sp, r7
  22:	f85d 7b04 	ldr.w	r7, [sp], #4
  26:	4770      	bx	lr

Disassembly of section .text.I2CMasterIntDisable:

00000000 <I2CMasterIntDisable>:
   0:	b480      	push	{r7}
   2:	b083      	sub	sp, #12
   4:	af00      	add	r7, sp, #0
   6:	6078      	str	r0, [r7, #4]
   8:	687b      	ldr	r3, [r7, #4]
   a:	3310      	adds	r3, #16
   c:	2200      	movs	r2, #0
   e:	601a      	str	r2, [r3, #0]
  10:	370c      	adds	r7, #12
  12:	46bd      	mov	sp, r7
  14:	f85d 7b04 	ldr.w	r7, [sp], #4
  18:	4770      	bx	lr
  1a:	bf00      	nop

Disassembly of section .text.I2CMasterIntDisableEx:

00000000 <I2CMasterIntDisableEx>:
   0:	b480      	push	{r7}
   2:	b083      	sub	sp, #12
   4:	af00      	add	r7, sp, #0
   6:	6078      	str	r0, [r7, #4]
   8:	6039      	str	r1, [r7, #0]
   a:	687b      	ldr	r3, [r7, #4]
   c:	3310      	adds	r3, #16
   e:	687a      	ldr	r2, [r7, #4]
  10:	3210      	adds	r2, #16
  12:	6811      	ldr	r1, [r2, #0]
  14:	683a      	ldr	r2, [r7, #0]
  16:	43d2      	mvns	r2, r2
  18:	400a      	ands	r2, r1
  1a:	601a      	str	r2, [r3, #0]
  1c:	370c      	adds	r7, #12
  1e:	46bd      	mov	sp, r7
  20:	f85d 7b04 	ldr.w	r7, [sp], #4
  24:	4770      	bx	lr
  26:	bf00      	nop

Disassembly of section .text.I2CSlaveIntDisable:

00000000 <I2CSlaveIntDisable>:
   0:	b480      	push	{r7}
   2:	b083      	sub	sp, #12
   4:	af00      	add	r7, sp, #0
   6:	6078      	str	r0, [r7, #4]
   8:	687b      	ldr	r3, [r7, #4]
   a:	f603 030c 	addw	r3, r3, #2060	; 0x80c
   e:	687a      	ldr	r2, [r7, #4]
  10:	f602 020c 	addw	r2, r2, #2060	; 0x80c
  14:	6812      	ldr	r2, [r2, #0]
  16:	f022 0201 	bic.w	r2, r2, #1
  1a:	601a      	str	r2, [r3, #0]
  1c:	370c      	adds	r7, #12
  1e:	46bd      	mov	sp, r7
  20:	f85d 7b04 	ldr.w	r7, [sp], #4
  24:	4770      	bx	lr
  26:	bf00      	nop

Disassembly of section .text.I2CSlaveIntDisableEx:

00000000 <I2CSlaveIntDisableEx>:
   0:	b480      	push	{r7}
   2:	b083      	sub	sp, #12
   4:	af00      	add	r7, sp, #0
   6:	6078      	str	r0, [r7, #4]
   8:	6039      	str	r1, [r7, #0]
   a:	687b      	ldr	r3, [r7, #4]
   c:	f603 030c 	addw	r3, r3, #2060	; 0x80c
  10:	687a      	ldr	r2, [r7, #4]
  12:	f602 020c 	addw	r2, r2, #2060	; 0x80c
  16:	6811      	ldr	r1, [r2, #0]
  18:	683a      	ldr	r2, [r7, #0]
  1a:	43d2      	mvns	r2, r2
  1c:	400a      	ands	r2, r1
  1e:	601a      	str	r2, [r3, #0]
  20:	370c      	adds	r7, #12
  22:	46bd      	mov	sp, r7
  24:	f85d 7b04 	ldr.w	r7, [sp], #4
  28:	4770      	bx	lr
  2a:	bf00      	nop

Disassembly of section .text.I2CMasterIntStatus:

00000000 <I2CMasterIntStatus>:
   0:	b480      	push	{r7}
   2:	b083      	sub	sp, #12
   4:	af00      	add	r7, sp, #0
   6:	6078      	str	r0, [r7, #4]
   8:	460b      	mov	r3, r1
   a:	70fb      	strb	r3, [r7, #3]
   c:	78fb      	ldrb	r3, [r7, #3]
   e:	2b00      	cmp	r3, #0
  10:	d008      	beq.n	24 <I2CMasterIntStatus+0x24>
  12:	687b      	ldr	r3, [r7, #4]
  14:	3318      	adds	r3, #24
  16:	681b      	ldr	r3, [r3, #0]
  18:	2b00      	cmp	r3, #0
  1a:	bf0c      	ite	eq
  1c:	2300      	moveq	r3, #0
  1e:	2301      	movne	r3, #1
  20:	b2db      	uxtb	r3, r3
  22:	e007      	b.n	34 <I2CMasterIntStatus+0x34>
  24:	687b      	ldr	r3, [r7, #4]
  26:	3314      	adds	r3, #20
  28:	681b      	ldr	r3, [r3, #0]
  2a:	2b00      	cmp	r3, #0
  2c:	bf0c      	ite	eq
  2e:	2300      	moveq	r3, #0
  30:	2301      	movne	r3, #1
  32:	b2db      	uxtb	r3, r3
  34:	4618      	mov	r0, r3
  36:	370c      	adds	r7, #12
  38:	46bd      	mov	sp, r7
  3a:	f85d 7b04 	ldr.w	r7, [sp], #4
  3e:	4770      	bx	lr

Disassembly of section .text.I2CMasterIntStatusEx:

00000000 <I2CMasterIntStatusEx>:
   0:	b480      	push	{r7}
   2:	b083      	sub	sp, #12
   4:	af00      	add	r7, sp, #0
   6:	6078      	str	r0, [r7, #4]
   8:	460b      	mov	r3, r1
   a:	70fb      	strb	r3, [r7, #3]
   c:	78fb      	ldrb	r3, [r7, #3]
   e:	2b00      	cmp	r3, #0
  10:	d003      	beq.n	1a <I2CMasterIntStatusEx+0x1a>
  12:	687b      	ldr	r3, [r7, #4]
  14:	3318      	adds	r3, #24
  16:	681b      	ldr	r3, [r3, #0]
  18:	e002      	b.n	20 <I2CMasterIntStatusEx+0x20>
  1a:	687b      	ldr	r3, [r7, #4]
  1c:	3314      	adds	r3, #20
  1e:	681b      	ldr	r3, [r3, #0]
  20:	4618      	mov	r0, r3
  22:	370c      	adds	r7, #12
  24:	46bd      	mov	sp, r7
  26:	f85d 7b04 	ldr.w	r7, [sp], #4
  2a:	4770      	bx	lr

Disassembly of section .text.I2CSlaveIntStatus:

00000000 <I2CSlaveIntStatus>:
   0:	b480      	push	{r7}
   2:	b083      	sub	sp, #12
   4:	af00      	add	r7, sp, #0
   6:	6078      	str	r0, [r7, #4]
   8:	460b      	mov	r3, r1
   a:	70fb      	strb	r3, [r7, #3]
   c:	78fb      	ldrb	r3, [r7, #3]
   e:	2b00      	cmp	r3, #0
  10:	d009      	beq.n	26 <I2CSlaveIntStatus+0x26>
  12:	687b      	ldr	r3, [r7, #4]
  14:	f603 0314 	addw	r3, r3, #2068	; 0x814
  18:	681b      	ldr	r3, [r3, #0]
  1a:	2b00      	cmp	r3, #0
  1c:	bf0c      	ite	eq
  1e:	2300      	moveq	r3, #0
  20:	2301      	movne	r3, #1
  22:	b2db      	uxtb	r3, r3
  24:	e008      	b.n	38 <I2CSlaveIntStatus+0x38>
  26:	687b      	ldr	r3, [r7, #4]
  28:	f503 6301 	add.w	r3, r3, #2064	; 0x810
  2c:	681b      	ldr	r3, [r3, #0]
  2e:	2b00      	cmp	r3, #0
  30:	bf0c      	ite	eq
  32:	2300      	moveq	r3, #0
  34:	2301      	movne	r3, #1
  36:	b2db      	uxtb	r3, r3
  38:	4618      	mov	r0, r3
  3a:	370c      	adds	r7, #12
  3c:	46bd      	mov	sp, r7
  3e:	f85d 7b04 	ldr.w	r7, [sp], #4
  42:	4770      	bx	lr

Disassembly of section .text.I2CSlaveIntStatusEx:

00000000 <I2CSlaveIntStatusEx>:
   0:	b480      	push	{r7}
   2:	b083      	sub	sp, #12
   4:	af00      	add	r7, sp, #0
   6:	6078      	str	r0, [r7, #4]
   8:	460b      	mov	r3, r1
   a:	70fb      	strb	r3, [r7, #3]
   c:	78fb      	ldrb	r3, [r7, #3]
   e:	2b00      	cmp	r3, #0
  10:	d004      	beq.n	1c <I2CSlaveIntStatusEx+0x1c>
  12:	687b      	ldr	r3, [r7, #4]
  14:	f603 0314 	addw	r3, r3, #2068	; 0x814
  18:	681b      	ldr	r3, [r3, #0]
  1a:	e003      	b.n	24 <I2CSlaveIntStatusEx+0x24>
  1c:	687b      	ldr	r3, [r7, #4]
  1e:	f503 6301 	add.w	r3, r3, #2064	; 0x810
  22:	681b      	ldr	r3, [r3, #0]
  24:	4618      	mov	r0, r3
  26:	370c      	adds	r7, #12
  28:	46bd      	mov	sp, r7
  2a:	f85d 7b04 	ldr.w	r7, [sp], #4
  2e:	4770      	bx	lr

Disassembly of section .text.I2CMasterIntClear:

00000000 <I2CMasterIntClear>:
   0:	b480      	push	{r7}
   2:	b083      	sub	sp, #12
   4:	af00      	add	r7, sp, #0
   6:	6078      	str	r0, [r7, #4]
   8:	687b      	ldr	r3, [r7, #4]
   a:	331c      	adds	r3, #28
   c:	2201      	movs	r2, #1
   e:	601a      	str	r2, [r3, #0]
  10:	687b      	ldr	r3, [r7, #4]
  12:	3318      	adds	r3, #24
  14:	2201      	movs	r2, #1
  16:	601a      	str	r2, [r3, #0]
  18:	370c      	adds	r7, #12
  1a:	46bd      	mov	sp, r7
  1c:	f85d 7b04 	ldr.w	r7, [sp], #4
  20:	4770      	bx	lr
  22:	bf00      	nop

Disassembly of section .text.I2CMasterIntClearEx:

00000000 <I2CMasterIntClearEx>:
   0:	b480      	push	{r7}
   2:	b083      	sub	sp, #12
   4:	af00      	add	r7, sp, #0
   6:	6078      	str	r0, [r7, #4]
   8:	6039      	str	r1, [r7, #0]
   a:	687b      	ldr	r3, [r7, #4]
   c:	331c      	adds	r3, #28
   e:	683a      	ldr	r2, [r7, #0]
  10:	601a      	str	r2, [r3, #0]
  12:	370c      	adds	r7, #12
  14:	46bd      	mov	sp, r7
  16:	f85d 7b04 	ldr.w	r7, [sp], #4
  1a:	4770      	bx	lr

Disassembly of section .text.I2CSlaveIntClear:

00000000 <I2CSlaveIntClear>:
   0:	b480      	push	{r7}
   2:	b083      	sub	sp, #12
   4:	af00      	add	r7, sp, #0
   6:	6078      	str	r0, [r7, #4]
   8:	687b      	ldr	r3, [r7, #4]
   a:	f603 0318 	addw	r3, r3, #2072	; 0x818
   e:	2201      	movs	r2, #1
  10:	601a      	str	r2, [r3, #0]
  12:	370c      	adds	r7, #12
  14:	46bd      	mov	sp, r7
  16:	f85d 7b04 	ldr.w	r7, [sp], #4
  1a:	4770      	bx	lr

Disassembly of section .text.I2CSlaveIntClearEx:

00000000 <I2CSlaveIntClearEx>:
   0:	b480      	push	{r7}
   2:	b083      	sub	sp, #12
   4:	af00      	add	r7, sp, #0
   6:	6078      	str	r0, [r7, #4]
   8:	6039      	str	r1, [r7, #0]
   a:	687b      	ldr	r3, [r7, #4]
   c:	f603 0318 	addw	r3, r3, #2072	; 0x818
  10:	683a      	ldr	r2, [r7, #0]
  12:	601a      	str	r2, [r3, #0]
  14:	370c      	adds	r7, #12
  16:	46bd      	mov	sp, r7
  18:	f85d 7b04 	ldr.w	r7, [sp], #4
  1c:	4770      	bx	lr
  1e:	bf00      	nop

Disassembly of section .text.I2CMasterSlaveAddrSet:

00000000 <I2CMasterSlaveAddrSet>:
   0:	b480      	push	{r7}
   2:	b083      	sub	sp, #12
   4:	af00      	add	r7, sp, #0
   6:	6078      	str	r0, [r7, #4]
   8:	4613      	mov	r3, r2
   a:	460a      	mov	r2, r1
   c:	70fa      	strb	r2, [r7, #3]
   e:	70bb      	strb	r3, [r7, #2]
  10:	687b      	ldr	r3, [r7, #4]
  12:	78fa      	ldrb	r2, [r7, #3]
  14:	0051      	lsls	r1, r2, #1
  16:	78ba      	ldrb	r2, [r7, #2]
  18:	430a      	orrs	r2, r1
  1a:	601a      	str	r2, [r3, #0]
  1c:	370c      	adds	r7, #12
  1e:	46bd      	mov	sp, r7
  20:	f85d 7b04 	ldr.w	r7, [sp], #4
  24:	4770      	bx	lr
  26:	bf00      	nop

Disassembly of section .text.I2CMasterLineStateGet:

00000000 <I2CMasterLineStateGet>:
   0:	b480      	push	{r7}
   2:	b083      	sub	sp, #12
   4:	af00      	add	r7, sp, #0
   6:	6078      	str	r0, [r7, #4]
   8:	687b      	ldr	r3, [r7, #4]
   a:	332c      	adds	r3, #44	; 0x2c
   c:	681b      	ldr	r3, [r3, #0]
   e:	4618      	mov	r0, r3
  10:	370c      	adds	r7, #12
  12:	46bd      	mov	sp, r7
  14:	f85d 7b04 	ldr.w	r7, [sp], #4
  18:	4770      	bx	lr
  1a:	bf00      	nop

Disassembly of section .text.I2CMasterBusy:

00000000 <I2CMasterBusy>:
   0:	b480      	push	{r7}
   2:	b083      	sub	sp, #12
   4:	af00      	add	r7, sp, #0
   6:	6078      	str	r0, [r7, #4]
   8:	687b      	ldr	r3, [r7, #4]
   a:	3304      	adds	r3, #4
   c:	681b      	ldr	r3, [r3, #0]
   e:	f003 0301 	and.w	r3, r3, #1
  12:	2b00      	cmp	r3, #0
  14:	d001      	beq.n	1a <I2CMasterBusy+0x1a>
  16:	2301      	movs	r3, #1
  18:	e000      	b.n	1c <I2CMasterBusy+0x1c>
  1a:	2300      	movs	r3, #0
  1c:	4618      	mov	r0, r3
  1e:	370c      	adds	r7, #12
  20:	46bd      	mov	sp, r7
  22:	f85d 7b04 	ldr.w	r7, [sp], #4
  26:	4770      	bx	lr

Disassembly of section .text.I2CMasterBusBusy:

00000000 <I2CMasterBusBusy>:
   0:	b480      	push	{r7}
   2:	b083      	sub	sp, #12
   4:	af00      	add	r7, sp, #0
   6:	6078      	str	r0, [r7, #4]
   8:	687b      	ldr	r3, [r7, #4]
   a:	3304      	adds	r3, #4
   c:	681b      	ldr	r3, [r3, #0]
   e:	f003 0340 	and.w	r3, r3, #64	; 0x40
  12:	2b00      	cmp	r3, #0
  14:	d001      	beq.n	1a <I2CMasterBusBusy+0x1a>
  16:	2301      	movs	r3, #1
  18:	e000      	b.n	1c <I2CMasterBusBusy+0x1c>
  1a:	2300      	movs	r3, #0
  1c:	4618      	mov	r0, r3
  1e:	370c      	adds	r7, #12
  20:	46bd      	mov	sp, r7
  22:	f85d 7b04 	ldr.w	r7, [sp], #4
  26:	4770      	bx	lr

Disassembly of section .text.I2CMasterControl:

00000000 <I2CMasterControl>:
   0:	b480      	push	{r7}
   2:	b083      	sub	sp, #12
   4:	af00      	add	r7, sp, #0
   6:	6078      	str	r0, [r7, #4]
   8:	6039      	str	r1, [r7, #0]
   a:	687b      	ldr	r3, [r7, #4]
   c:	3304      	adds	r3, #4
   e:	683a      	ldr	r2, [r7, #0]
  10:	601a      	str	r2, [r3, #0]
  12:	370c      	adds	r7, #12
  14:	46bd      	mov	sp, r7
  16:	f85d 7b04 	ldr.w	r7, [sp], #4
  1a:	4770      	bx	lr

Disassembly of section .text.I2CMasterErr:

00000000 <I2CMasterErr>:
   0:	b480      	push	{r7}
   2:	b085      	sub	sp, #20
   4:	af00      	add	r7, sp, #0
   6:	6078      	str	r0, [r7, #4]
   8:	687b      	ldr	r3, [r7, #4]
   a:	3304      	adds	r3, #4
   c:	681b      	ldr	r3, [r3, #0]
   e:	60fb      	str	r3, [r7, #12]
  10:	68fb      	ldr	r3, [r7, #12]
  12:	f003 0301 	and.w	r3, r3, #1
  16:	2b00      	cmp	r3, #0
  18:	d001      	beq.n	1e <I2CMasterErr+0x1e>
  1a:	2300      	movs	r3, #0
  1c:	e009      	b.n	32 <I2CMasterErr+0x32>
  1e:	68fb      	ldr	r3, [r7, #12]
  20:	f003 0312 	and.w	r3, r3, #18
  24:	2b00      	cmp	r3, #0
  26:	d003      	beq.n	30 <I2CMasterErr+0x30>
  28:	68fb      	ldr	r3, [r7, #12]
  2a:	f003 031c 	and.w	r3, r3, #28
  2e:	e000      	b.n	32 <I2CMasterErr+0x32>
  30:	2300      	movs	r3, #0
  32:	4618      	mov	r0, r3
  34:	3714      	adds	r7, #20
  36:	46bd      	mov	sp, r7
  38:	f85d 7b04 	ldr.w	r7, [sp], #4
  3c:	4770      	bx	lr
  3e:	bf00      	nop

Disassembly of section .text.I2CMasterDataPut:

00000000 <I2CMasterDataPut>:
   0:	b480      	push	{r7}
   2:	b083      	sub	sp, #12
   4:	af00      	add	r7, sp, #0
   6:	6078      	str	r0, [r7, #4]
   8:	460b      	mov	r3, r1
   a:	70fb      	strb	r3, [r7, #3]
   c:	687b      	ldr	r3, [r7, #4]
   e:	3308      	adds	r3, #8
  10:	78fa      	ldrb	r2, [r7, #3]
  12:	601a      	str	r2, [r3, #0]
  14:	370c      	adds	r7, #12
  16:	46bd      	mov	sp, r7
  18:	f85d 7b04 	ldr.w	r7, [sp], #4
  1c:	4770      	bx	lr
  1e:	bf00      	nop

Disassembly of section .text.I2CMasterDataGet:

00000000 <I2CMasterDataGet>:
   0:	b480      	push	{r7}
   2:	b083      	sub	sp, #12
   4:	af00      	add	r7, sp, #0
   6:	6078      	str	r0, [r7, #4]
   8:	687b      	ldr	r3, [r7, #4]
   a:	3308      	adds	r3, #8
   c:	681b      	ldr	r3, [r3, #0]
   e:	4618      	mov	r0, r3
  10:	370c      	adds	r7, #12
  12:	46bd      	mov	sp, r7
  14:	f85d 7b04 	ldr.w	r7, [sp], #4
  18:	4770      	bx	lr
  1a:	bf00      	nop

Disassembly of section .text.I2CMasterTimeoutSet:

00000000 <I2CMasterTimeoutSet>:
   0:	b480      	push	{r7}
   2:	b083      	sub	sp, #12
   4:	af00      	add	r7, sp, #0
   6:	6078      	str	r0, [r7, #4]
   8:	6039      	str	r1, [r7, #0]
   a:	687b      	ldr	r3, [r7, #4]
   c:	3324      	adds	r3, #36	; 0x24
   e:	683a      	ldr	r2, [r7, #0]
  10:	601a      	str	r2, [r3, #0]
  12:	370c      	adds	r7, #12
  14:	46bd      	mov	sp, r7
  16:	f85d 7b04 	ldr.w	r7, [sp], #4
  1a:	4770      	bx	lr

Disassembly of section .text.I2CSlaveACKOverride:

00000000 <I2CSlaveACKOverride>:
   0:	b480      	push	{r7}
   2:	b083      	sub	sp, #12
   4:	af00      	add	r7, sp, #0
   6:	6078      	str	r0, [r7, #4]
   8:	460b      	mov	r3, r1
   a:	70fb      	strb	r3, [r7, #3]
   c:	78fb      	ldrb	r3, [r7, #3]
   e:	2b00      	cmp	r3, #0
  10:	d00a      	beq.n	28 <I2CSlaveACKOverride+0x28>
  12:	687b      	ldr	r3, [r7, #4]
  14:	f503 6302 	add.w	r3, r3, #2080	; 0x820
  18:	687a      	ldr	r2, [r7, #4]
  1a:	f502 6202 	add.w	r2, r2, #2080	; 0x820
  1e:	6812      	ldr	r2, [r2, #0]
  20:	f042 0201 	orr.w	r2, r2, #1
  24:	601a      	str	r2, [r3, #0]
  26:	e009      	b.n	3c <I2CSlaveACKOverride+0x3c>
  28:	687b      	ldr	r3, [r7, #4]
  2a:	f503 6302 	add.w	r3, r3, #2080	; 0x820
  2e:	687a      	ldr	r2, [r7, #4]
  30:	f502 6202 	add.w	r2, r2, #2080	; 0x820
  34:	6812      	ldr	r2, [r2, #0]
  36:	f022 0201 	bic.w	r2, r2, #1
  3a:	601a      	str	r2, [r3, #0]
  3c:	370c      	adds	r7, #12
  3e:	46bd      	mov	sp, r7
  40:	f85d 7b04 	ldr.w	r7, [sp], #4
  44:	4770      	bx	lr
  46:	bf00      	nop

Disassembly of section .text.I2CSlaveACKValueSet:

00000000 <I2CSlaveACKValueSet>:
   0:	b480      	push	{r7}
   2:	b083      	sub	sp, #12
   4:	af00      	add	r7, sp, #0
   6:	6078      	str	r0, [r7, #4]
   8:	460b      	mov	r3, r1
   a:	70fb      	strb	r3, [r7, #3]
   c:	78fb      	ldrb	r3, [r7, #3]
   e:	2b00      	cmp	r3, #0
  10:	d00a      	beq.n	28 <I2CSlaveACKValueSet+0x28>
  12:	687b      	ldr	r3, [r7, #4]
  14:	f503 6302 	add.w	r3, r3, #2080	; 0x820
  18:	687a      	ldr	r2, [r7, #4]
  1a:	f502 6202 	add.w	r2, r2, #2080	; 0x820
  1e:	6812      	ldr	r2, [r2, #0]
  20:	f022 0202 	bic.w	r2, r2, #2
  24:	601a      	str	r2, [r3, #0]
  26:	e009      	b.n	3c <I2CSlaveACKValueSet+0x3c>
  28:	687b      	ldr	r3, [r7, #4]
  2a:	f503 6302 	add.w	r3, r3, #2080	; 0x820
  2e:	687a      	ldr	r2, [r7, #4]
  30:	f502 6202 	add.w	r2, r2, #2080	; 0x820
  34:	6812      	ldr	r2, [r2, #0]
  36:	f042 0202 	orr.w	r2, r2, #2
  3a:	601a      	str	r2, [r3, #0]
  3c:	370c      	adds	r7, #12
  3e:	46bd      	mov	sp, r7
  40:	f85d 7b04 	ldr.w	r7, [sp], #4
  44:	4770      	bx	lr
  46:	bf00      	nop

Disassembly of section .text.I2CSlaveStatus:

00000000 <I2CSlaveStatus>:
   0:	b480      	push	{r7}
   2:	b083      	sub	sp, #12
   4:	af00      	add	r7, sp, #0
   6:	6078      	str	r0, [r7, #4]
   8:	687b      	ldr	r3, [r7, #4]
   a:	f603 0304 	addw	r3, r3, #2052	; 0x804
   e:	681b      	ldr	r3, [r3, #0]
  10:	4618      	mov	r0, r3
  12:	370c      	adds	r7, #12
  14:	46bd      	mov	sp, r7
  16:	f85d 7b04 	ldr.w	r7, [sp], #4
  1a:	4770      	bx	lr

Disassembly of section .text.I2CSlaveDataPut:

00000000 <I2CSlaveDataPut>:
   0:	b480      	push	{r7}
   2:	b083      	sub	sp, #12
   4:	af00      	add	r7, sp, #0
   6:	6078      	str	r0, [r7, #4]
   8:	460b      	mov	r3, r1
   a:	70fb      	strb	r3, [r7, #3]
   c:	687b      	ldr	r3, [r7, #4]
   e:	f603 0308 	addw	r3, r3, #2056	; 0x808
  12:	78fa      	ldrb	r2, [r7, #3]
  14:	601a      	str	r2, [r3, #0]
  16:	370c      	adds	r7, #12
  18:	46bd      	mov	sp, r7
  1a:	f85d 7b04 	ldr.w	r7, [sp], #4
  1e:	4770      	bx	lr

Disassembly of section .text.I2CSlaveDataGet:

00000000 <I2CSlaveDataGet>:
   0:	b480      	push	{r7}
   2:	b083      	sub	sp, #12
   4:	af00      	add	r7, sp, #0
   6:	6078      	str	r0, [r7, #4]
   8:	687b      	ldr	r3, [r7, #4]
   a:	f603 0308 	addw	r3, r3, #2056	; 0x808
   e:	681b      	ldr	r3, [r3, #0]
  10:	4618      	mov	r0, r3
  12:	370c      	adds	r7, #12
  14:	46bd      	mov	sp, r7
  16:	f85d 7b04 	ldr.w	r7, [sp], #4
  1a:	4770      	bx	lr

Disassembly of section .text.I2CTxFIFOConfigSet:

00000000 <I2CTxFIFOConfigSet>:
   0:	b480      	push	{r7}
   2:	b083      	sub	sp, #12
   4:	af00      	add	r7, sp, #0
   6:	6078      	str	r0, [r7, #4]
   8:	6039      	str	r1, [r7, #0]
   a:	687b      	ldr	r3, [r7, #4]
   c:	f603 7304 	addw	r3, r3, #3844	; 0xf04
  10:	461a      	mov	r2, r3
  12:	687b      	ldr	r3, [r7, #4]
  14:	f603 7304 	addw	r3, r3, #3844	; 0xf04
  18:	681b      	ldr	r3, [r3, #0]
  1a:	0c1b      	lsrs	r3, r3, #16
  1c:	041b      	lsls	r3, r3, #16
  1e:	6013      	str	r3, [r2, #0]
  20:	687b      	ldr	r3, [r7, #4]
  22:	f603 7304 	addw	r3, r3, #3844	; 0xf04
  26:	687a      	ldr	r2, [r7, #4]
  28:	f602 7204 	addw	r2, r2, #3844	; 0xf04
  2c:	6811      	ldr	r1, [r2, #0]
  2e:	683a      	ldr	r2, [r7, #0]
  30:	430a      	orrs	r2, r1
  32:	601a      	str	r2, [r3, #0]
  34:	370c      	adds	r7, #12
  36:	46bd      	mov	sp, r7
  38:	f85d 7b04 	ldr.w	r7, [sp], #4
  3c:	4770      	bx	lr
  3e:	bf00      	nop

Disassembly of section .text.I2CTxFIFOFlush:

00000000 <I2CTxFIFOFlush>:
   0:	b480      	push	{r7}
   2:	b083      	sub	sp, #12
   4:	af00      	add	r7, sp, #0
   6:	6078      	str	r0, [r7, #4]
   8:	687b      	ldr	r3, [r7, #4]
   a:	f603 7304 	addw	r3, r3, #3844	; 0xf04
   e:	687a      	ldr	r2, [r7, #4]
  10:	f602 7204 	addw	r2, r2, #3844	; 0xf04
  14:	6812      	ldr	r2, [r2, #0]
  16:	f442 4280 	orr.w	r2, r2, #16384	; 0x4000
  1a:	601a      	str	r2, [r3, #0]
  1c:	370c      	adds	r7, #12
  1e:	46bd      	mov	sp, r7
  20:	f85d 7b04 	ldr.w	r7, [sp], #4
  24:	4770      	bx	lr
  26:	bf00      	nop

Disassembly of section .text.I2CRxFIFOConfigSet:

00000000 <I2CRxFIFOConfigSet>:
   0:	b480      	push	{r7}
   2:	b083      	sub	sp, #12
   4:	af00      	add	r7, sp, #0
   6:	6078      	str	r0, [r7, #4]
   8:	6039      	str	r1, [r7, #0]
   a:	687b      	ldr	r3, [r7, #4]
   c:	f603 7304 	addw	r3, r3, #3844	; 0xf04
  10:	687a      	ldr	r2, [r7, #4]
  12:	f602 7204 	addw	r2, r2, #3844	; 0xf04
  16:	6812      	ldr	r2, [r2, #0]
  18:	b292      	uxth	r2, r2
  1a:	601a      	str	r2, [r3, #0]
  1c:	687b      	ldr	r3, [r7, #4]
  1e:	f603 7304 	addw	r3, r3, #3844	; 0xf04
  22:	687a      	ldr	r2, [r7, #4]
  24:	f602 7204 	addw	r2, r2, #3844	; 0xf04
  28:	6811      	ldr	r1, [r2, #0]
  2a:	683a      	ldr	r2, [r7, #0]
  2c:	430a      	orrs	r2, r1
  2e:	601a      	str	r2, [r3, #0]
  30:	370c      	adds	r7, #12
  32:	46bd      	mov	sp, r7
  34:	f85d 7b04 	ldr.w	r7, [sp], #4
  38:	4770      	bx	lr
  3a:	bf00      	nop

Disassembly of section .text.I2CRxFIFOFlush:

00000000 <I2CRxFIFOFlush>:
   0:	b480      	push	{r7}
   2:	b083      	sub	sp, #12
   4:	af00      	add	r7, sp, #0
   6:	6078      	str	r0, [r7, #4]
   8:	687b      	ldr	r3, [r7, #4]
   a:	f603 7304 	addw	r3, r3, #3844	; 0xf04
   e:	687a      	ldr	r2, [r7, #4]
  10:	f602 7204 	addw	r2, r2, #3844	; 0xf04
  14:	6812      	ldr	r2, [r2, #0]
  16:	f042 4280 	orr.w	r2, r2, #1073741824	; 0x40000000
  1a:	601a      	str	r2, [r3, #0]
  1c:	370c      	adds	r7, #12
  1e:	46bd      	mov	sp, r7
  20:	f85d 7b04 	ldr.w	r7, [sp], #4
  24:	4770      	bx	lr
  26:	bf00      	nop

Disassembly of section .text.I2CFIFOStatus:

00000000 <I2CFIFOStatus>:
   0:	b480      	push	{r7}
   2:	b083      	sub	sp, #12
   4:	af00      	add	r7, sp, #0
   6:	6078      	str	r0, [r7, #4]
   8:	687b      	ldr	r3, [r7, #4]
   a:	f603 7308 	addw	r3, r3, #3848	; 0xf08
   e:	681b      	ldr	r3, [r3, #0]
  10:	4618      	mov	r0, r3
  12:	370c      	adds	r7, #12
  14:	46bd      	mov	sp, r7
  16:	f85d 7b04 	ldr.w	r7, [sp], #4
  1a:	4770      	bx	lr

Disassembly of section .text.I2CFIFODataPut:

00000000 <I2CFIFODataPut>:
   0:	b480      	push	{r7}
   2:	b083      	sub	sp, #12
   4:	af00      	add	r7, sp, #0
   6:	6078      	str	r0, [r7, #4]
   8:	460b      	mov	r3, r1
   a:	70fb      	strb	r3, [r7, #3]
   c:	bf00      	nop
   e:	687b      	ldr	r3, [r7, #4]
  10:	f603 7308 	addw	r3, r3, #3848	; 0xf08
  14:	681b      	ldr	r3, [r3, #0]
  16:	f003 0302 	and.w	r3, r3, #2
  1a:	2b00      	cmp	r3, #0
  1c:	d1f7      	bne.n	e <I2CFIFODataPut+0xe>
  1e:	687b      	ldr	r3, [r7, #4]
  20:	f503 6370 	add.w	r3, r3, #3840	; 0xf00
  24:	78fa      	ldrb	r2, [r7, #3]
  26:	601a      	str	r2, [r3, #0]
  28:	370c      	adds	r7, #12
  2a:	46bd      	mov	sp, r7
  2c:	f85d 7b04 	ldr.w	r7, [sp], #4
  30:	4770      	bx	lr
  32:	bf00      	nop

Disassembly of section .text.I2CFIFODataPutNonBlocking:

00000000 <I2CFIFODataPutNonBlocking>:
   0:	b480      	push	{r7}
   2:	b083      	sub	sp, #12
   4:	af00      	add	r7, sp, #0
   6:	6078      	str	r0, [r7, #4]
   8:	460b      	mov	r3, r1
   a:	70fb      	strb	r3, [r7, #3]
   c:	687b      	ldr	r3, [r7, #4]
   e:	f603 7308 	addw	r3, r3, #3848	; 0xf08
  12:	681b      	ldr	r3, [r3, #0]
  14:	f003 0302 	and.w	r3, r3, #2
  18:	2b00      	cmp	r3, #0
  1a:	d001      	beq.n	20 <I2CFIFODataPutNonBlocking+0x20>
  1c:	2300      	movs	r3, #0
  1e:	e005      	b.n	2c <I2CFIFODataPutNonBlocking+0x2c>
  20:	687b      	ldr	r3, [r7, #4]
  22:	f503 6370 	add.w	r3, r3, #3840	; 0xf00
  26:	78fa      	ldrb	r2, [r7, #3]
  28:	601a      	str	r2, [r3, #0]
  2a:	2301      	movs	r3, #1
  2c:	4618      	mov	r0, r3
  2e:	370c      	adds	r7, #12
  30:	46bd      	mov	sp, r7
  32:	f85d 7b04 	ldr.w	r7, [sp], #4
  36:	4770      	bx	lr

Disassembly of section .text.I2CFIFODataGet:

00000000 <I2CFIFODataGet>:
   0:	b480      	push	{r7}
   2:	b083      	sub	sp, #12
   4:	af00      	add	r7, sp, #0
   6:	6078      	str	r0, [r7, #4]
   8:	bf00      	nop
   a:	687b      	ldr	r3, [r7, #4]
   c:	f603 7308 	addw	r3, r3, #3848	; 0xf08
  10:	681b      	ldr	r3, [r3, #0]
  12:	f403 3380 	and.w	r3, r3, #65536	; 0x10000
  16:	2b00      	cmp	r3, #0
  18:	d1f7      	bne.n	a <I2CFIFODataGet+0xa>
  1a:	687b      	ldr	r3, [r7, #4]
  1c:	f503 6370 	add.w	r3, r3, #3840	; 0xf00
  20:	681b      	ldr	r3, [r3, #0]
  22:	4618      	mov	r0, r3
  24:	370c      	adds	r7, #12
  26:	46bd      	mov	sp, r7
  28:	f85d 7b04 	ldr.w	r7, [sp], #4
  2c:	4770      	bx	lr
  2e:	bf00      	nop

Disassembly of section .text.I2CFIFODataGetNonBlocking:

00000000 <I2CFIFODataGetNonBlocking>:
   0:	b480      	push	{r7}
   2:	b083      	sub	sp, #12
   4:	af00      	add	r7, sp, #0
   6:	6078      	str	r0, [r7, #4]
   8:	6039      	str	r1, [r7, #0]
   a:	687b      	ldr	r3, [r7, #4]
   c:	f603 7308 	addw	r3, r3, #3848	; 0xf08
  10:	681b      	ldr	r3, [r3, #0]
  12:	f403 3380 	and.w	r3, r3, #65536	; 0x10000
  16:	2b00      	cmp	r3, #0
  18:	d001      	beq.n	1e <I2CFIFODataGetNonBlocking+0x1e>
  1a:	2300      	movs	r3, #0
  1c:	e007      	b.n	2e <I2CFIFODataGetNonBlocking+0x2e>
  1e:	687b      	ldr	r3, [r7, #4]
  20:	f503 6370 	add.w	r3, r3, #3840	; 0xf00
  24:	681b      	ldr	r3, [r3, #0]
  26:	b2da      	uxtb	r2, r3
  28:	683b      	ldr	r3, [r7, #0]
  2a:	701a      	strb	r2, [r3, #0]
  2c:	2301      	movs	r3, #1
  2e:	4618      	mov	r0, r3
  30:	370c      	adds	r7, #12
  32:	46bd      	mov	sp, r7
  34:	f85d 7b04 	ldr.w	r7, [sp], #4
  38:	4770      	bx	lr
  3a:	bf00      	nop

Disassembly of section .text.I2CMasterBurstLengthSet:

00000000 <I2CMasterBurstLengthSet>:
   0:	b480      	push	{r7}
   2:	b083      	sub	sp, #12
   4:	af00      	add	r7, sp, #0
   6:	6078      	str	r0, [r7, #4]
   8:	460b      	mov	r3, r1
   a:	70fb      	strb	r3, [r7, #3]
   c:	687b      	ldr	r3, [r7, #4]
   e:	3330      	adds	r3, #48	; 0x30
  10:	78fa      	ldrb	r2, [r7, #3]
  12:	601a      	str	r2, [r3, #0]
  14:	370c      	adds	r7, #12
  16:	46bd      	mov	sp, r7
  18:	f85d 7b04 	ldr.w	r7, [sp], #4
  1c:	4770      	bx	lr
  1e:	bf00      	nop

Disassembly of section .text.I2CMasterBurstCountGet:

00000000 <I2CMasterBurstCountGet>:
   0:	b480      	push	{r7}
   2:	b083      	sub	sp, #12
   4:	af00      	add	r7, sp, #0
   6:	6078      	str	r0, [r7, #4]
   8:	687b      	ldr	r3, [r7, #4]
   a:	3334      	adds	r3, #52	; 0x34
   c:	681b      	ldr	r3, [r3, #0]
   e:	4618      	mov	r0, r3
  10:	370c      	adds	r7, #12
  12:	46bd      	mov	sp, r7
  14:	f85d 7b04 	ldr.w	r7, [sp], #4
  18:	4770      	bx	lr
  1a:	bf00      	nop

Disassembly of section .text.I2CMasterGlitchFilterConfigSet:

00000000 <I2CMasterGlitchFilterConfigSet>:
   0:	b480      	push	{r7}
   2:	b083      	sub	sp, #12
   4:	af00      	add	r7, sp, #0
   6:	6078      	str	r0, [r7, #4]
   8:	6039      	str	r1, [r7, #0]
   a:	687b      	ldr	r3, [r7, #4]
   c:	330c      	adds	r3, #12
   e:	687a      	ldr	r2, [r7, #4]
  10:	320c      	adds	r2, #12
  12:	6811      	ldr	r1, [r2, #0]
  14:	683a      	ldr	r2, [r7, #0]
  16:	430a      	orrs	r2, r1
  18:	601a      	str	r2, [r3, #0]
  1a:	370c      	adds	r7, #12
  1c:	46bd      	mov	sp, r7
  1e:	f85d 7b04 	ldr.w	r7, [sp], #4
  22:	4770      	bx	lr

Disassembly of section .text.I2CSlaveFIFOEnable:

00000000 <I2CSlaveFIFOEnable>:
   0:	b480      	push	{r7}
   2:	b083      	sub	sp, #12
   4:	af00      	add	r7, sp, #0
   6:	6078      	str	r0, [r7, #4]
   8:	6039      	str	r1, [r7, #0]
   a:	687b      	ldr	r3, [r7, #4]
   c:	f603 0304 	addw	r3, r3, #2052	; 0x804
  10:	683a      	ldr	r2, [r7, #0]
  12:	f042 0201 	orr.w	r2, r2, #1
  16:	601a      	str	r2, [r3, #0]
  18:	370c      	adds	r7, #12
  1a:	46bd      	mov	sp, r7
  1c:	f85d 7b04 	ldr.w	r7, [sp], #4
  20:	4770      	bx	lr
  22:	bf00      	nop

Disassembly of section .text.I2CSlaveFIFODisable:

00000000 <I2CSlaveFIFODisable>:
   0:	b480      	push	{r7}
   2:	b083      	sub	sp, #12
   4:	af00      	add	r7, sp, #0
   6:	6078      	str	r0, [r7, #4]
   8:	687b      	ldr	r3, [r7, #4]
   a:	f603 0304 	addw	r3, r3, #2052	; 0x804
   e:	2201      	movs	r2, #1
  10:	601a      	str	r2, [r3, #0]
  12:	370c      	adds	r7, #12
  14:	46bd      	mov	sp, r7
  16:	f85d 7b04 	ldr.w	r7, [sp], #4
  1a:	4770      	bx	lr

Disassembly of section .text.IntDefaultHandler:

00000000 <IntDefaultHandler>:
   0:	b480      	push	{r7}
   2:	af00      	add	r7, sp, #0
   4:	e7fe      	b.n	4 <IntDefaultHandler+0x4>
   6:	bf00      	nop

Disassembly of section .text.IntMasterEnable:

00000000 <IntMasterEnable>:
   0:	b580      	push	{r7, lr}
   2:	af00      	add	r7, sp, #0
   4:	f7ff fffe 	bl	0 <CPUcpsie>
   8:	4603      	mov	r3, r0
   a:	b2db      	uxtb	r3, r3
   c:	4618      	mov	r0, r3
   e:	bd80      	pop	{r7, pc}

Disassembly of section .text.IntMasterDisable:

00000000 <IntMasterDisable>:
   0:	b580      	push	{r7, lr}
   2:	af00      	add	r7, sp, #0
   4:	f7ff fffe 	bl	0 <CPUcpsid>
   8:	4603      	mov	r3, r0
   a:	b2db      	uxtb	r3, r3
   c:	4618      	mov	r0, r3
   e:	bd80      	pop	{r7, pc}

Disassembly of section .text.IntVTableBaseSet:

00000000 <IntVTableBaseSet>:
   0:	b480      	push	{r7}
   2:	b083      	sub	sp, #12
   4:	af00      	add	r7, sp, #0
   6:	6078      	str	r0, [r7, #4]
   8:	f64e 5308 	movw	r3, #60680	; 0xed08
   c:	f2ce 0300 	movt	r3, #57344	; 0xe000
  10:	687a      	ldr	r2, [r7, #4]
  12:	601a      	str	r2, [r3, #0]
  14:	370c      	adds	r7, #12
  16:	46bd      	mov	sp, r7
  18:	f85d 7b04 	ldr.w	r7, [sp], #4
  1c:	4770      	bx	lr
  1e:	bf00      	nop

Disassembly of section .text.IntRegister:

00000000 <IntRegister>:
   0:	b480      	push	{r7}
   2:	b085      	sub	sp, #20
   4:	af00      	add	r7, sp, #0
   6:	6078      	str	r0, [r7, #4]
   8:	6039      	str	r1, [r7, #0]
   a:	f64e 5308 	movw	r3, #60680	; 0xed08
   e:	f2ce 0300 	movt	r3, #57344	; 0xe000
  12:	681b      	ldr	r3, [r3, #0]
  14:	60fb      	str	r3, [r7, #12]
  16:	687b      	ldr	r3, [r7, #4]
  18:	009b      	lsls	r3, r3, #2
  1a:	68fa      	ldr	r2, [r7, #12]
  1c:	4413      	add	r3, r2
  1e:	683a      	ldr	r2, [r7, #0]
  20:	601a      	str	r2, [r3, #0]
  22:	3714      	adds	r7, #20
  24:	46bd      	mov	sp, r7
  26:	f85d 7b04 	ldr.w	r7, [sp], #4
  2a:	4770      	bx	lr

Disassembly of section .text.IntUnregister:

00000000 <IntUnregister>:
   0:	b480      	push	{r7}
   2:	b085      	sub	sp, #20
   4:	af00      	add	r7, sp, #0
   6:	6078      	str	r0, [r7, #4]
   8:	f64e 5308 	movw	r3, #60680	; 0xed08
   c:	f2ce 0300 	movt	r3, #57344	; 0xe000
  10:	681b      	ldr	r3, [r3, #0]
  12:	60fb      	str	r3, [r7, #12]
  14:	687b      	ldr	r3, [r7, #4]
  16:	009b      	lsls	r3, r3, #2
  18:	68fa      	ldr	r2, [r7, #12]
  1a:	441a      	add	r2, r3
  1c:	f240 0300 	movw	r3, #0
  20:	f2c0 0300 	movt	r3, #0
  24:	6013      	str	r3, [r2, #0]
  26:	3714      	adds	r7, #20
  28:	46bd      	mov	sp, r7
  2a:	f85d 7b04 	ldr.w	r7, [sp], #4
  2e:	4770      	bx	lr

Disassembly of section .text.IntPriorityGroupingSet:

00000000 <IntPriorityGroupingSet>:
   0:	b480      	push	{r7}
   2:	b083      	sub	sp, #12
   4:	af00      	add	r7, sp, #0
   6:	6078      	str	r0, [r7, #4]
   8:	f64e 530c 	movw	r3, #60684	; 0xed0c
   c:	f2ce 0300 	movt	r3, #57344	; 0xe000
  10:	f240 0200 	movw	r2, #0
  14:	f2c0 0200 	movt	r2, #0
  18:	6879      	ldr	r1, [r7, #4]
  1a:	f852 2021 	ldr.w	r2, [r2, r1, lsl #2]
  1e:	f042 62bf 	orr.w	r2, r2, #100139008	; 0x5f80000
  22:	f442 3200 	orr.w	r2, r2, #131072	; 0x20000
  26:	601a      	str	r2, [r3, #0]
  28:	370c      	adds	r7, #12
  2a:	46bd      	mov	sp, r7
  2c:	f85d 7b04 	ldr.w	r7, [sp], #4
  30:	4770      	bx	lr
  32:	bf00      	nop

Disassembly of section .text.IntPriorityGroupingGet:

00000000 <IntPriorityGroupingGet>:
   0:	b480      	push	{r7}
   2:	b083      	sub	sp, #12
   4:	af00      	add	r7, sp, #0
   6:	f64e 530c 	movw	r3, #60684	; 0xed0c
   a:	f2ce 0300 	movt	r3, #57344	; 0xe000
   e:	681b      	ldr	r3, [r3, #0]
  10:	f403 63e0 	and.w	r3, r3, #1792	; 0x700
  14:	603b      	str	r3, [r7, #0]
  16:	2300      	movs	r3, #0
  18:	607b      	str	r3, [r7, #4]
  1a:	e00d      	b.n	38 <IntPriorityGroupingGet+0x38>
  1c:	f240 0300 	movw	r3, #0
  20:	f2c0 0300 	movt	r3, #0
  24:	687a      	ldr	r2, [r7, #4]
  26:	f853 2022 	ldr.w	r2, [r3, r2, lsl #2]
  2a:	683b      	ldr	r3, [r7, #0]
  2c:	429a      	cmp	r2, r3
  2e:	d100      	bne.n	32 <IntPriorityGroupingGet+0x32>
  30:	e005      	b.n	3e <IntPriorityGroupingGet+0x3e>
  32:	687b      	ldr	r3, [r7, #4]
  34:	3301      	adds	r3, #1
  36:	607b      	str	r3, [r7, #4]
  38:	687b      	ldr	r3, [r7, #4]
  3a:	2b07      	cmp	r3, #7
  3c:	d9ee      	bls.n	1c <IntPriorityGroupingGet+0x1c>
  3e:	687b      	ldr	r3, [r7, #4]
  40:	4618      	mov	r0, r3
  42:	370c      	adds	r7, #12
  44:	46bd      	mov	sp, r7
  46:	f85d 7b04 	ldr.w	r7, [sp], #4
  4a:	4770      	bx	lr

Disassembly of section .text.IntPrioritySet:

00000000 <IntPrioritySet>:
   0:	b480      	push	{r7}
   2:	b085      	sub	sp, #20
   4:	af00      	add	r7, sp, #0
   6:	6078      	str	r0, [r7, #4]
   8:	460b      	mov	r3, r1
   a:	70fb      	strb	r3, [r7, #3]
   c:	687b      	ldr	r3, [r7, #4]
   e:	089a      	lsrs	r2, r3, #2
  10:	f240 0300 	movw	r3, #0
  14:	f2c0 0300 	movt	r3, #0
  18:	f853 3022 	ldr.w	r3, [r3, r2, lsl #2]
  1c:	681b      	ldr	r3, [r3, #0]
  1e:	60fb      	str	r3, [r7, #12]
  20:	687b      	ldr	r3, [r7, #4]
  22:	f003 0303 	and.w	r3, r3, #3
  26:	00db      	lsls	r3, r3, #3
  28:	22ff      	movs	r2, #255	; 0xff
  2a:	fa02 f303 	lsl.w	r3, r2, r3
  2e:	43db      	mvns	r3, r3
  30:	68fa      	ldr	r2, [r7, #12]
  32:	4013      	ands	r3, r2
  34:	60fb      	str	r3, [r7, #12]
  36:	78fa      	ldrb	r2, [r7, #3]
  38:	687b      	ldr	r3, [r7, #4]
  3a:	f003 0303 	and.w	r3, r3, #3
  3e:	00db      	lsls	r3, r3, #3
  40:	fa02 f303 	lsl.w	r3, r2, r3
  44:	68fa      	ldr	r2, [r7, #12]
  46:	4313      	orrs	r3, r2
  48:	60fb      	str	r3, [r7, #12]
  4a:	687b      	ldr	r3, [r7, #4]
  4c:	089a      	lsrs	r2, r3, #2
  4e:	f240 0300 	movw	r3, #0
  52:	f2c0 0300 	movt	r3, #0
  56:	f853 3022 	ldr.w	r3, [r3, r2, lsl #2]
  5a:	68fa      	ldr	r2, [r7, #12]
  5c:	601a      	str	r2, [r3, #0]
  5e:	3714      	adds	r7, #20
  60:	46bd      	mov	sp, r7
  62:	f85d 7b04 	ldr.w	r7, [sp], #4
  66:	4770      	bx	lr

Disassembly of section .text.IntPriorityGet:

00000000 <IntPriorityGet>:
   0:	b480      	push	{r7}
   2:	b083      	sub	sp, #12
   4:	af00      	add	r7, sp, #0
   6:	6078      	str	r0, [r7, #4]
   8:	687b      	ldr	r3, [r7, #4]
   a:	089a      	lsrs	r2, r3, #2
   c:	f240 0300 	movw	r3, #0
  10:	f2c0 0300 	movt	r3, #0
  14:	f853 3022 	ldr.w	r3, [r3, r2, lsl #2]
  18:	681a      	ldr	r2, [r3, #0]
  1a:	687b      	ldr	r3, [r7, #4]
  1c:	f003 0303 	and.w	r3, r3, #3
  20:	00db      	lsls	r3, r3, #3
  22:	fa22 f303 	lsr.w	r3, r2, r3
  26:	b2db      	uxtb	r3, r3
  28:	4618      	mov	r0, r3
  2a:	370c      	adds	r7, #12
  2c:	46bd      	mov	sp, r7
  2e:	f85d 7b04 	ldr.w	r7, [sp], #4
  32:	4770      	bx	lr

Disassembly of section .text.IntEnable:

00000000 <IntEnable>:
   0:	b480      	push	{r7}
   2:	b083      	sub	sp, #12
   4:	af00      	add	r7, sp, #0
   6:	6078      	str	r0, [r7, #4]
   8:	687b      	ldr	r3, [r7, #4]
   a:	2b04      	cmp	r3, #4
   c:	d110      	bne.n	30 <IntEnable+0x30>
   e:	f64e 5324 	movw	r3, #60708	; 0xed24
  12:	f2ce 0300 	movt	r3, #57344	; 0xe000
  16:	f64e 5224 	movw	r2, #60708	; 0xed24
  1a:	f2ce 0200 	movt	r2, #57344	; 0xe000
  1e:	6812      	ldr	r2, [r2, #0]
  20:	f442 3280 	orr.w	r2, r2, #65536	; 0x10000
  24:	601a      	str	r2, [r3, #0]
  26:	f3bf 8f4f 	dsb	sy
  2a:	f3bf 8f6f 	isb	sy
  2e:	e053      	b.n	d8 <IntEnable+0xd8>
  30:	687b      	ldr	r3, [r7, #4]
  32:	2b05      	cmp	r3, #5
  34:	d110      	bne.n	58 <IntEnable+0x58>
  36:	f64e 5324 	movw	r3, #60708	; 0xed24
  3a:	f2ce 0300 	movt	r3, #57344	; 0xe000
  3e:	f64e 5224 	movw	r2, #60708	; 0xed24
  42:	f2ce 0200 	movt	r2, #57344	; 0xe000
  46:	6812      	ldr	r2, [r2, #0]
  48:	f442 3200 	orr.w	r2, r2, #131072	; 0x20000
  4c:	601a      	str	r2, [r3, #0]
  4e:	f3bf 8f4f 	dsb	sy
  52:	f3bf 8f6f 	isb	sy
  56:	e03f      	b.n	d8 <IntEnable+0xd8>
  58:	687b      	ldr	r3, [r7, #4]
  5a:	2b06      	cmp	r3, #6
  5c:	d110      	bne.n	80 <IntEnable+0x80>
  5e:	f64e 5324 	movw	r3, #60708	; 0xed24
  62:	f2ce 0300 	movt	r3, #57344	; 0xe000
  66:	f64e 5224 	movw	r2, #60708	; 0xed24
  6a:	f2ce 0200 	movt	r2, #57344	; 0xe000
  6e:	6812      	ldr	r2, [r2, #0]
  70:	f442 2280 	orr.w	r2, r2, #262144	; 0x40000
  74:	601a      	str	r2, [r3, #0]
  76:	f3bf 8f4f 	dsb	sy
  7a:	f3bf 8f6f 	isb	sy
  7e:	e02b      	b.n	d8 <IntEnable+0xd8>
  80:	687b      	ldr	r3, [r7, #4]
  82:	2b0f      	cmp	r3, #15
  84:	d110      	bne.n	a8 <IntEnable+0xa8>
  86:	f24e 0310 	movw	r3, #57360	; 0xe010
  8a:	f2ce 0300 	movt	r3, #57344	; 0xe000
  8e:	f24e 0210 	movw	r2, #57360	; 0xe010
  92:	f2ce 0200 	movt	r2, #57344	; 0xe000
  96:	6812      	ldr	r2, [r2, #0]
  98:	f042 0202 	orr.w	r2, r2, #2
  9c:	601a      	str	r2, [r3, #0]
  9e:	f3bf 8f4f 	dsb	sy
  a2:	f3bf 8f6f 	isb	sy
  a6:	e017      	b.n	d8 <IntEnable+0xd8>
  a8:	687b      	ldr	r3, [r7, #4]
  aa:	2b0f      	cmp	r3, #15
  ac:	d914      	bls.n	d8 <IntEnable+0xd8>
  ae:	687b      	ldr	r3, [r7, #4]
  b0:	3b10      	subs	r3, #16
  b2:	095a      	lsrs	r2, r3, #5
  b4:	f240 0300 	movw	r3, #0
  b8:	f2c0 0300 	movt	r3, #0
  bc:	f853 3022 	ldr.w	r3, [r3, r2, lsl #2]
  c0:	687a      	ldr	r2, [r7, #4]
  c2:	3a10      	subs	r2, #16
  c4:	f002 021f 	and.w	r2, r2, #31
  c8:	2101      	movs	r1, #1
  ca:	fa01 f202 	lsl.w	r2, r1, r2
  ce:	601a      	str	r2, [r3, #0]
  d0:	f3bf 8f4f 	dsb	sy
  d4:	f3bf 8f6f 	isb	sy
  d8:	370c      	adds	r7, #12
  da:	46bd      	mov	sp, r7
  dc:	f85d 7b04 	ldr.w	r7, [sp], #4
  e0:	4770      	bx	lr
  e2:	bf00      	nop

Disassembly of section .text.IntDisable:

00000000 <IntDisable>:
   0:	b480      	push	{r7}
   2:	b083      	sub	sp, #12
   4:	af00      	add	r7, sp, #0
   6:	6078      	str	r0, [r7, #4]
   8:	687b      	ldr	r3, [r7, #4]
   a:	2b04      	cmp	r3, #4
   c:	d110      	bne.n	30 <IntDisable+0x30>
   e:	f64e 5324 	movw	r3, #60708	; 0xed24
  12:	f2ce 0300 	movt	r3, #57344	; 0xe000
  16:	f64e 5224 	movw	r2, #60708	; 0xed24
  1a:	f2ce 0200 	movt	r2, #57344	; 0xe000
  1e:	6812      	ldr	r2, [r2, #0]
  20:	f422 3280 	bic.w	r2, r2, #65536	; 0x10000
  24:	601a      	str	r2, [r3, #0]
  26:	f3bf 8f4f 	dsb	sy
  2a:	f3bf 8f6f 	isb	sy
  2e:	e053      	b.n	d8 <IntDisable+0xd8>
  30:	687b      	ldr	r3, [r7, #4]
  32:	2b05      	cmp	r3, #5
  34:	d110      	bne.n	58 <IntDisable+0x58>
  36:	f64e 5324 	movw	r3, #60708	; 0xed24
  3a:	f2ce 0300 	movt	r3, #57344	; 0xe000
  3e:	f64e 5224 	movw	r2, #60708	; 0xed24
  42:	f2ce 0200 	movt	r2, #57344	; 0xe000
  46:	6812      	ldr	r2, [r2, #0]
  48:	f422 3200 	bic.w	r2, r2, #131072	; 0x20000
  4c:	601a      	str	r2, [r3, #0]
  4e:	f3bf 8f4f 	dsb	sy
  52:	f3bf 8f6f 	isb	sy
  56:	e03f      	b.n	d8 <IntDisable+0xd8>
  58:	687b      	ldr	r3, [r7, #4]
  5a:	2b06      	cmp	r3, #6
  5c:	d110      	bne.n	80 <IntDisable+0x80>
  5e:	f64e 5324 	movw	r3, #60708	; 0xed24
  62:	f2ce 0300 	movt	r3, #57344	; 0xe000
  66:	f64e 5224 	movw	r2, #60708	; 0xed24
  6a:	f2ce 0200 	movt	r2, #57344	; 0xe000
  6e:	6812      	ldr	r2, [r2, #0]
  70:	f422 2280 	bic.w	r2, r2, #262144	; 0x40000
  74:	601a      	str	r2, [r3, #0]
  76:	f3bf 8f4f 	dsb	sy
  7a:	f3bf 8f6f 	isb	sy
  7e:	e02b      	b.n	d8 <IntDisable+0xd8>
  80:	687b      	ldr	r3, [r7, #4]
  82:	2b0f      	cmp	r3, #15
  84:	d110      	bne.n	a8 <IntDisable+0xa8>
  86:	f24e 0310 	movw	r3, #57360	; 0xe010
  8a:	f2ce 0300 	movt	r3, #57344	; 0xe000
  8e:	f24e 0210 	movw	r2, #57360	; 0xe010
  92:	f2ce 0200 	movt	r2, #57344	; 0xe000
  96:	6812      	ldr	r2, [r2, #0]
  98:	f022 0202 	bic.w	r2, r2, #2
  9c:	601a      	str	r2, [r3, #0]
  9e:	f3bf 8f4f 	dsb	sy
  a2:	f3bf 8f6f 	isb	sy
  a6:	e017      	b.n	d8 <IntDisable+0xd8>
  a8:	687b      	ldr	r3, [r7, #4]
  aa:	2b0f      	cmp	r3, #15
  ac:	d914      	bls.n	d8 <IntDisable+0xd8>
  ae:	687b      	ldr	r3, [r7, #4]
  b0:	3b10      	subs	r3, #16
  b2:	095a      	lsrs	r2, r3, #5
  b4:	f240 0300 	movw	r3, #0
  b8:	f2c0 0300 	movt	r3, #0
  bc:	f853 3022 	ldr.w	r3, [r3, r2, lsl #2]
  c0:	687a      	ldr	r2, [r7, #4]
  c2:	3a10      	subs	r2, #16
  c4:	f002 021f 	and.w	r2, r2, #31
  c8:	2101      	movs	r1, #1
  ca:	fa01 f202 	lsl.w	r2, r1, r2
  ce:	601a      	str	r2, [r3, #0]
  d0:	f3bf 8f4f 	dsb	sy
  d4:	f3bf 8f6f 	isb	sy
  d8:	370c      	adds	r7, #12
  da:	46bd      	mov	sp, r7
  dc:	f85d 7b04 	ldr.w	r7, [sp], #4
  e0:	4770      	bx	lr
  e2:	bf00      	nop

Disassembly of section .text.IntPendSet:

00000000 <IntPendSet>:
   0:	b480      	push	{r7}
   2:	b083      	sub	sp, #12
   4:	af00      	add	r7, sp, #0
   6:	6078      	str	r0, [r7, #4]
   8:	687b      	ldr	r3, [r7, #4]
   a:	2b02      	cmp	r3, #2
   c:	d110      	bne.n	30 <IntPendSet+0x30>
   e:	f64e 5304 	movw	r3, #60676	; 0xed04
  12:	f2ce 0300 	movt	r3, #57344	; 0xe000
  16:	f64e 5204 	movw	r2, #60676	; 0xed04
  1a:	f2ce 0200 	movt	r2, #57344	; 0xe000
  1e:	6812      	ldr	r2, [r2, #0]
  20:	f042 4200 	orr.w	r2, r2, #2147483648	; 0x80000000
  24:	601a      	str	r2, [r3, #0]
  26:	f3bf 8f4f 	dsb	sy
  2a:	f3bf 8f6f 	isb	sy
  2e:	e03f      	b.n	b0 <IntPendSet+0xb0>
  30:	687b      	ldr	r3, [r7, #4]
  32:	2b0e      	cmp	r3, #14
  34:	d110      	bne.n	58 <IntPendSet+0x58>
  36:	f64e 5304 	movw	r3, #60676	; 0xed04
  3a:	f2ce 0300 	movt	r3, #57344	; 0xe000
  3e:	f64e 5204 	movw	r2, #60676	; 0xed04
  42:	f2ce 0200 	movt	r2, #57344	; 0xe000
  46:	6812      	ldr	r2, [r2, #0]
  48:	f042 5280 	orr.w	r2, r2, #268435456	; 0x10000000
  4c:	601a      	str	r2, [r3, #0]
  4e:	f3bf 8f4f 	dsb	sy
  52:	f3bf 8f6f 	isb	sy
  56:	e02b      	b.n	b0 <IntPendSet+0xb0>
  58:	687b      	ldr	r3, [r7, #4]
  5a:	2b0f      	cmp	r3, #15
  5c:	d110      	bne.n	80 <IntPendSet+0x80>
  5e:	f64e 5304 	movw	r3, #60676	; 0xed04
  62:	f2ce 0300 	movt	r3, #57344	; 0xe000
  66:	f64e 5204 	movw	r2, #60676	; 0xed04
  6a:	f2ce 0200 	movt	r2, #57344	; 0xe000
  6e:	6812      	ldr	r2, [r2, #0]
  70:	f042 6280 	orr.w	r2, r2, #67108864	; 0x4000000
  74:	601a      	str	r2, [r3, #0]
  76:	f3bf 8f4f 	dsb	sy
  7a:	f3bf 8f6f 	isb	sy
  7e:	e017      	b.n	b0 <IntPendSet+0xb0>
  80:	687b      	ldr	r3, [r7, #4]
  82:	2b0f      	cmp	r3, #15
  84:	d914      	bls.n	b0 <IntPendSet+0xb0>
  86:	687b      	ldr	r3, [r7, #4]
  88:	3b10      	subs	r3, #16
  8a:	095a      	lsrs	r2, r3, #5
  8c:	f240 0300 	movw	r3, #0
  90:	f2c0 0300 	movt	r3, #0
  94:	f853 3022 	ldr.w	r3, [r3, r2, lsl #2]
  98:	687a      	ldr	r2, [r7, #4]
  9a:	3a10      	subs	r2, #16
  9c:	f002 021f 	and.w	r2, r2, #31
  a0:	2101      	movs	r1, #1
  a2:	fa01 f202 	lsl.w	r2, r1, r2
  a6:	601a      	str	r2, [r3, #0]
  a8:	f3bf 8f4f 	dsb	sy
  ac:	f3bf 8f6f 	isb	sy
  b0:	370c      	adds	r7, #12
  b2:	46bd      	mov	sp, r7
  b4:	f85d 7b04 	ldr.w	r7, [sp], #4
  b8:	4770      	bx	lr
  ba:	bf00      	nop

Disassembly of section .text.IntPendClear:

00000000 <IntPendClear>:
   0:	b480      	push	{r7}
   2:	b083      	sub	sp, #12
   4:	af00      	add	r7, sp, #0
   6:	6078      	str	r0, [r7, #4]
   8:	687b      	ldr	r3, [r7, #4]
   a:	2b0e      	cmp	r3, #14
   c:	d10c      	bne.n	28 <IntPendClear+0x28>
   e:	f64e 5304 	movw	r3, #60676	; 0xed04
  12:	f2ce 0300 	movt	r3, #57344	; 0xe000
  16:	f64e 5204 	movw	r2, #60676	; 0xed04
  1a:	f2ce 0200 	movt	r2, #57344	; 0xe000
  1e:	6812      	ldr	r2, [r2, #0]
  20:	f042 6200 	orr.w	r2, r2, #134217728	; 0x8000000
  24:	601a      	str	r2, [r3, #0]
  26:	e023      	b.n	70 <IntPendClear+0x70>
  28:	687b      	ldr	r3, [r7, #4]
  2a:	2b0f      	cmp	r3, #15
  2c:	d10c      	bne.n	48 <IntPendClear+0x48>
  2e:	f64e 5304 	movw	r3, #60676	; 0xed04
  32:	f2ce 0300 	movt	r3, #57344	; 0xe000
  36:	f64e 5204 	movw	r2, #60676	; 0xed04
  3a:	f2ce 0200 	movt	r2, #57344	; 0xe000
  3e:	6812      	ldr	r2, [r2, #0]
  40:	f042 7200 	orr.w	r2, r2, #33554432	; 0x2000000
  44:	601a      	str	r2, [r3, #0]
  46:	e013      	b.n	70 <IntPendClear+0x70>
  48:	687b      	ldr	r3, [r7, #4]
  4a:	2b0f      	cmp	r3, #15
  4c:	d910      	bls.n	70 <IntPendClear+0x70>
  4e:	687b      	ldr	r3, [r7, #4]
  50:	3b10      	subs	r3, #16
  52:	095a      	lsrs	r2, r3, #5
  54:	f240 0300 	movw	r3, #0
  58:	f2c0 0300 	movt	r3, #0
  5c:	f853 3022 	ldr.w	r3, [r3, r2, lsl #2]
  60:	687a      	ldr	r2, [r7, #4]
  62:	3a10      	subs	r2, #16
  64:	f002 021f 	and.w	r2, r2, #31
  68:	2101      	movs	r1, #1
  6a:	fa01 f202 	lsl.w	r2, r1, r2
  6e:	601a      	str	r2, [r3, #0]
  70:	370c      	adds	r7, #12
  72:	46bd      	mov	sp, r7
  74:	f85d 7b04 	ldr.w	r7, [sp], #4
  78:	4770      	bx	lr
  7a:	bf00      	nop

Disassembly of section .text.IntPriorityMaskSet:

00000000 <IntPriorityMaskSet>:
   0:	b580      	push	{r7, lr}
   2:	b082      	sub	sp, #8
   4:	af00      	add	r7, sp, #0
   6:	6078      	str	r0, [r7, #4]
   8:	6878      	ldr	r0, [r7, #4]
   a:	f7ff fffe 	bl	0 <CPUbasepriSet>
   e:	3708      	adds	r7, #8
  10:	46bd      	mov	sp, r7
  12:	bd80      	pop	{r7, pc}

Disassembly of section .text.IntPriorityMaskGet:

00000000 <IntPriorityMaskGet>:
   0:	b580      	push	{r7, lr}
   2:	af00      	add	r7, sp, #0
   4:	f7ff fffe 	bl	0 <CPUbasepriGet>
   8:	4603      	mov	r3, r0
   a:	4618      	mov	r0, r3
   c:	bd80      	pop	{r7, pc}
   e:	bf00      	nop

Disassembly of section .text.I2SGBLEnable:

00000000 <I2SGBLEnable>:
   0:	b480      	push	{r7}
   2:	b085      	sub	sp, #20
   4:	af00      	add	r7, sp, #0
   6:	6078      	str	r0, [r7, #4]
   8:	6039      	str	r1, [r7, #0]
   a:	687b      	ldr	r3, [r7, #4]
   c:	3344      	adds	r3, #68	; 0x44
   e:	681b      	ldr	r3, [r3, #0]
  10:	60fb      	str	r3, [r7, #12]
  12:	68fa      	ldr	r2, [r7, #12]
  14:	683b      	ldr	r3, [r7, #0]
  16:	4313      	orrs	r3, r2
  18:	60fb      	str	r3, [r7, #12]
  1a:	687b      	ldr	r3, [r7, #4]
  1c:	3344      	adds	r3, #68	; 0x44
  1e:	68fa      	ldr	r2, [r7, #12]
  20:	601a      	str	r2, [r3, #0]
  22:	bf00      	nop
  24:	687b      	ldr	r3, [r7, #4]
  26:	3344      	adds	r3, #68	; 0x44
  28:	681a      	ldr	r2, [r3, #0]
  2a:	68fb      	ldr	r3, [r7, #12]
  2c:	429a      	cmp	r2, r3
  2e:	d1f9      	bne.n	24 <I2SGBLEnable+0x24>
  30:	3714      	adds	r7, #20
  32:	46bd      	mov	sp, r7
  34:	f85d 7b04 	ldr.w	r7, [sp], #4
  38:	4770      	bx	lr
  3a:	bf00      	nop

Disassembly of section .text.I2SEnable:

00000000 <I2SEnable>:
   0:	b580      	push	{r7, lr}
   2:	b082      	sub	sp, #8
   4:	af00      	add	r7, sp, #0
   6:	6078      	str	r0, [r7, #4]
   8:	6039      	str	r1, [r7, #0]
   a:	687b      	ldr	r3, [r7, #4]
   c:	3314      	adds	r3, #20
   e:	687a      	ldr	r2, [r7, #4]
  10:	3214      	adds	r2, #20
  12:	6812      	ldr	r2, [r2, #0]
  14:	f042 52a0 	orr.w	r2, r2, #335544320	; 0x14000000
  18:	601a      	str	r2, [r3, #0]
  1a:	683b      	ldr	r3, [r7, #0]
  1c:	f003 0302 	and.w	r3, r3, #2
  20:	2b00      	cmp	r3, #0
  22:	d013      	beq.n	4c <I2SEnable+0x4c>
  24:	6878      	ldr	r0, [r7, #4]
  26:	2102      	movs	r1, #2
  28:	f7ff fffe 	bl	0 <I2SEnable>
  2c:	6878      	ldr	r0, [r7, #4]
  2e:	2101      	movs	r1, #1
  30:	f7ff fffe 	bl	0 <I2SEnable>
  34:	6878      	ldr	r0, [r7, #4]
  36:	2104      	movs	r1, #4
  38:	f7ff fffe 	bl	0 <I2SEnable>
  3c:	6878      	ldr	r0, [r7, #4]
  3e:	2108      	movs	r1, #8
  40:	f7ff fffe 	bl	0 <I2SEnable>
  44:	6878      	ldr	r0, [r7, #4]
  46:	2110      	movs	r1, #16
  48:	f7ff fffe 	bl	0 <I2SEnable>
  4c:	683b      	ldr	r3, [r7, #0]
  4e:	f003 0301 	and.w	r3, r3, #1
  52:	2b00      	cmp	r3, #0
  54:	d018      	beq.n	88 <I2SEnable+0x88>
  56:	6878      	ldr	r0, [r7, #4]
  58:	f44f 7100 	mov.w	r1, #512	; 0x200
  5c:	f7ff fffe 	bl	0 <I2SEnable>
  60:	6878      	ldr	r0, [r7, #4]
  62:	f44f 7180 	mov.w	r1, #256	; 0x100
  66:	f7ff fffe 	bl	0 <I2SEnable>
  6a:	6878      	ldr	r0, [r7, #4]
  6c:	f44f 6180 	mov.w	r1, #1024	; 0x400
  70:	f7ff fffe 	bl	0 <I2SEnable>
  74:	6878      	ldr	r0, [r7, #4]
  76:	f44f 6100 	mov.w	r1, #2048	; 0x800
  7a:	f7ff fffe 	bl	0 <I2SEnable>
  7e:	6878      	ldr	r0, [r7, #4]
  80:	f44f 5180 	mov.w	r1, #4096	; 0x1000
  84:	f7ff fffe 	bl	0 <I2SEnable>
  88:	3708      	adds	r7, #8
  8a:	46bd      	mov	sp, r7
  8c:	bd80      	pop	{r7, pc}
  8e:	bf00      	nop

Disassembly of section .text.I2SDisable:

00000000 <I2SDisable>:
   0:	b480      	push	{r7}
   2:	b083      	sub	sp, #12
   4:	af00      	add	r7, sp, #0
   6:	6078      	str	r0, [r7, #4]
   8:	687b      	ldr	r3, [r7, #4]
   a:	3344      	adds	r3, #68	; 0x44
   c:	2200      	movs	r2, #0
   e:	601a      	str	r2, [r3, #0]
  10:	bf00      	nop
  12:	687b      	ldr	r3, [r7, #4]
  14:	3344      	adds	r3, #68	; 0x44
  16:	681b      	ldr	r3, [r3, #0]
  18:	2b00      	cmp	r3, #0
  1a:	d1fa      	bne.n	12 <I2SDisable+0x12>
  1c:	370c      	adds	r7, #12
  1e:	46bd      	mov	sp, r7
  20:	f85d 7b04 	ldr.w	r7, [sp], #4
  24:	4770      	bx	lr
  26:	bf00      	nop

Disassembly of section .text.I2SDataPut:

00000000 <I2SDataPut>:
   0:	b480      	push	{r7}
   2:	b085      	sub	sp, #20
   4:	af00      	add	r7, sp, #0
   6:	60f8      	str	r0, [r7, #12]
   8:	60b9      	str	r1, [r7, #8]
   a:	607a      	str	r2, [r7, #4]
   c:	68bb      	ldr	r3, [r7, #8]
   e:	3b01      	subs	r3, #1
  10:	009b      	lsls	r3, r3, #2
  12:	60bb      	str	r3, [r7, #8]
  14:	bf00      	nop
  16:	68fb      	ldr	r3, [r7, #12]
  18:	33c0      	adds	r3, #192	; 0xc0
  1a:	681b      	ldr	r3, [r3, #0]
  1c:	f003 0320 	and.w	r3, r3, #32
  20:	2b00      	cmp	r3, #0
  22:	d0f8      	beq.n	16 <I2SDataPut+0x16>
  24:	68fa      	ldr	r2, [r7, #12]
  26:	68bb      	ldr	r3, [r7, #8]
  28:	4413      	add	r3, r2
  2a:	f503 7300 	add.w	r3, r3, #512	; 0x200
  2e:	687a      	ldr	r2, [r7, #4]
  30:	601a      	str	r2, [r3, #0]
  32:	3714      	adds	r7, #20
  34:	46bd      	mov	sp, r7
  36:	f85d 7b04 	ldr.w	r7, [sp], #4
  3a:	4770      	bx	lr

Disassembly of section .text.I2SDataPutNonBlocking:

00000000 <I2SDataPutNonBlocking>:
   0:	b480      	push	{r7}
   2:	b085      	sub	sp, #20
   4:	af00      	add	r7, sp, #0
   6:	60f8      	str	r0, [r7, #12]
   8:	60b9      	str	r1, [r7, #8]
   a:	607a      	str	r2, [r7, #4]
   c:	68bb      	ldr	r3, [r7, #8]
   e:	3b01      	subs	r3, #1
  10:	009b      	lsls	r3, r3, #2
  12:	60bb      	str	r3, [r7, #8]
  14:	68fb      	ldr	r3, [r7, #12]
  16:	33c0      	adds	r3, #192	; 0xc0
  18:	681b      	ldr	r3, [r3, #0]
  1a:	f003 0320 	and.w	r3, r3, #32
  1e:	2b00      	cmp	r3, #0
  20:	d008      	beq.n	34 <I2SDataPutNonBlocking+0x34>
  22:	68fa      	ldr	r2, [r7, #12]
  24:	68bb      	ldr	r3, [r7, #8]
  26:	4413      	add	r3, r2
  28:	f503 7300 	add.w	r3, r3, #512	; 0x200
  2c:	687a      	ldr	r2, [r7, #4]
  2e:	601a      	str	r2, [r3, #0]
  30:	2300      	movs	r3, #0
  32:	e001      	b.n	38 <I2SDataPutNonBlocking+0x38>
  34:	f04f 33ff 	mov.w	r3, #4294967295
  38:	4618      	mov	r0, r3
  3a:	3714      	adds	r7, #20
  3c:	46bd      	mov	sp, r7
  3e:	f85d 7b04 	ldr.w	r7, [sp], #4
  42:	4770      	bx	lr

Disassembly of section .text.I2SDataGet:

00000000 <I2SDataGet>:
   0:	b480      	push	{r7}
   2:	b085      	sub	sp, #20
   4:	af00      	add	r7, sp, #0
   6:	60f8      	str	r0, [r7, #12]
   8:	60b9      	str	r1, [r7, #8]
   a:	607a      	str	r2, [r7, #4]
   c:	68bb      	ldr	r3, [r7, #8]
   e:	3b01      	subs	r3, #1
  10:	009b      	lsls	r3, r3, #2
  12:	60bb      	str	r3, [r7, #8]
  14:	bf00      	nop
  16:	68fb      	ldr	r3, [r7, #12]
  18:	3380      	adds	r3, #128	; 0x80
  1a:	681b      	ldr	r3, [r3, #0]
  1c:	f003 0320 	and.w	r3, r3, #32
  20:	2b00      	cmp	r3, #0
  22:	d0f8      	beq.n	16 <I2SDataGet+0x16>
  24:	68fa      	ldr	r2, [r7, #12]
  26:	68bb      	ldr	r3, [r7, #8]
  28:	4413      	add	r3, r2
  2a:	f503 7320 	add.w	r3, r3, #640	; 0x280
  2e:	681a      	ldr	r2, [r3, #0]
  30:	687b      	ldr	r3, [r7, #4]
  32:	601a      	str	r2, [r3, #0]
  34:	3714      	adds	r7, #20
  36:	46bd      	mov	sp, r7
  38:	f85d 7b04 	ldr.w	r7, [sp], #4
  3c:	4770      	bx	lr
  3e:	bf00      	nop

Disassembly of section .text.I2SDataGetNonBlocking:

00000000 <I2SDataGetNonBlocking>:
   0:	b480      	push	{r7}
   2:	b085      	sub	sp, #20
   4:	af00      	add	r7, sp, #0
   6:	60f8      	str	r0, [r7, #12]
   8:	60b9      	str	r1, [r7, #8]
   a:	607a      	str	r2, [r7, #4]
   c:	68bb      	ldr	r3, [r7, #8]
   e:	3b01      	subs	r3, #1
  10:	009b      	lsls	r3, r3, #2
  12:	60bb      	str	r3, [r7, #8]
  14:	68fb      	ldr	r3, [r7, #12]
  16:	3380      	adds	r3, #128	; 0x80
  18:	681b      	ldr	r3, [r3, #0]
  1a:	f003 0320 	and.w	r3, r3, #32
  1e:	2b00      	cmp	r3, #0
  20:	d009      	beq.n	36 <I2SDataGetNonBlocking+0x36>
  22:	68fa      	ldr	r2, [r7, #12]
  24:	68bb      	ldr	r3, [r7, #8]
  26:	4413      	add	r3, r2
  28:	f503 7320 	add.w	r3, r3, #640	; 0x280
  2c:	681a      	ldr	r2, [r3, #0]
  2e:	687b      	ldr	r3, [r7, #4]
  30:	601a      	str	r2, [r3, #0]
  32:	2300      	movs	r3, #0
  34:	e001      	b.n	3a <I2SDataGetNonBlocking+0x3a>
  36:	f04f 33ff 	mov.w	r3, #4294967295
  3a:	4618      	mov	r0, r3
  3c:	3714      	adds	r7, #20
  3e:	46bd      	mov	sp, r7
  40:	f85d 7b04 	ldr.w	r7, [sp], #4
  44:	4770      	bx	lr
  46:	bf00      	nop

Disassembly of section .text.I2SConfigSetExpClk:

00000000 <I2SConfigSetExpClk>:
   0:	b480      	push	{r7}
   2:	b087      	sub	sp, #28
   4:	af00      	add	r7, sp, #0
   6:	60f8      	str	r0, [r7, #12]
   8:	60b9      	str	r1, [r7, #8]
   a:	607a      	str	r2, [r7, #4]
   c:	603b      	str	r3, [r7, #0]
   e:	68ba      	ldr	r2, [r7, #8]
  10:	687b      	ldr	r3, [r7, #4]
  12:	fbb2 f3f3 	udiv	r3, r2, r3
  16:	3b01      	subs	r3, #1
  18:	617b      	str	r3, [r7, #20]
  1a:	2300      	movs	r3, #0
  1c:	613b      	str	r3, [r7, #16]
  1e:	697b      	ldr	r3, [r7, #20]
  20:	f5b3 5f80 	cmp.w	r3, #4096	; 0x1000
  24:	d30d      	bcc.n	42 <I2SConfigSetExpClk+0x42>
  26:	f640 73ff 	movw	r3, #4095	; 0xfff
  2a:	617b      	str	r3, [r7, #20]
  2c:	697b      	ldr	r3, [r7, #20]
  2e:	3301      	adds	r3, #1
  30:	687a      	ldr	r2, [r7, #4]
  32:	fb02 f303 	mul.w	r3, r2, r3
  36:	68ba      	ldr	r2, [r7, #8]
  38:	fbb2 f3f3 	udiv	r3, r2, r3
  3c:	f003 031f 	and.w	r3, r3, #31
  40:	613b      	str	r3, [r7, #16]
  42:	68fb      	ldr	r3, [r7, #12]
  44:	33b0      	adds	r3, #176	; 0xb0
  46:	693a      	ldr	r2, [r7, #16]
  48:	f042 02a0 	orr.w	r2, r2, #160	; 0xa0
  4c:	601a      	str	r2, [r3, #0]
  4e:	68fb      	ldr	r3, [r7, #12]
  50:	33b4      	adds	r3, #180	; 0xb4
  52:	697a      	ldr	r2, [r7, #20]
  54:	f442 4200 	orr.w	r2, r2, #32768	; 0x8000
  58:	601a      	str	r2, [r3, #0]
  5a:	68fb      	ldr	r3, [r7, #12]
  5c:	33a8      	adds	r3, #168	; 0xa8
  5e:	683a      	ldr	r2, [r7, #0]
  60:	b292      	uxth	r2, r2
  62:	f442 32c0 	orr.w	r2, r2, #98304	; 0x18000
  66:	601a      	str	r2, [r3, #0]
  68:	68fb      	ldr	r3, [r7, #12]
  6a:	3368      	adds	r3, #104	; 0x68
  6c:	683a      	ldr	r2, [r7, #0]
  6e:	0c12      	lsrs	r2, r2, #16
  70:	f442 32c0 	orr.w	r2, r2, #98304	; 0x18000
  74:	601a      	str	r2, [r3, #0]
  76:	68fb      	ldr	r3, [r7, #12]
  78:	33ac      	adds	r3, #172	; 0xac
  7a:	f240 1213 	movw	r2, #275	; 0x113
  7e:	601a      	str	r2, [r3, #0]
  80:	68fb      	ldr	r3, [r7, #12]
  82:	336c      	adds	r3, #108	; 0x6c
  84:	f240 1213 	movw	r2, #275	; 0x113
  88:	601a      	str	r2, [r3, #0]
  8a:	68fb      	ldr	r3, [r7, #12]
  8c:	33a4      	adds	r3, #164	; 0xa4
  8e:	f04f 32ff 	mov.w	r2, #4294967295
  92:	601a      	str	r2, [r3, #0]
  94:	68fb      	ldr	r3, [r7, #12]
  96:	3364      	adds	r3, #100	; 0x64
  98:	f04f 32ff 	mov.w	r2, #4294967295
  9c:	601a      	str	r2, [r3, #0]
  9e:	68fb      	ldr	r3, [r7, #12]
  a0:	33b8      	adds	r3, #184	; 0xb8
  a2:	2203      	movs	r2, #3
  a4:	601a      	str	r2, [r3, #0]
  a6:	68fb      	ldr	r3, [r7, #12]
  a8:	3378      	adds	r3, #120	; 0x78
  aa:	2203      	movs	r2, #3
  ac:	601a      	str	r2, [r3, #0]
  ae:	371c      	adds	r7, #28
  b0:	46bd      	mov	sp, r7
  b2:	f85d 7b04 	ldr.w	r7, [sp], #4
  b6:	4770      	bx	lr

Disassembly of section .text.I2STxFIFOEnable:

00000000 <I2STxFIFOEnable>:
   0:	b480      	push	{r7}
   2:	b085      	sub	sp, #20
   4:	af00      	add	r7, sp, #0
   6:	60f8      	str	r0, [r7, #12]
   8:	60b9      	str	r1, [r7, #8]
   a:	607a      	str	r2, [r7, #4]
   c:	68fb      	ldr	r3, [r7, #12]
   e:	f503 5380 	add.w	r3, r3, #4096	; 0x1000
  12:	68ba      	ldr	r2, [r7, #8]
  14:	0212      	lsls	r2, r2, #8
  16:	b291      	uxth	r1, r2
  18:	687a      	ldr	r2, [r7, #4]
  1a:	f002 021f 	and.w	r2, r2, #31
  1e:	430a      	orrs	r2, r1
  20:	f442 3280 	orr.w	r2, r2, #65536	; 0x10000
  24:	601a      	str	r2, [r3, #0]
  26:	3714      	adds	r7, #20
  28:	46bd      	mov	sp, r7
  2a:	f85d 7b04 	ldr.w	r7, [sp], #4
  2e:	4770      	bx	lr

Disassembly of section .text.I2STxFIFODisable:

00000000 <I2STxFIFODisable>:
   0:	b480      	push	{r7}
   2:	b083      	sub	sp, #12
   4:	af00      	add	r7, sp, #0
   6:	6078      	str	r0, [r7, #4]
   8:	687b      	ldr	r3, [r7, #4]
   a:	f503 5380 	add.w	r3, r3, #4096	; 0x1000
   e:	2200      	movs	r2, #0
  10:	601a      	str	r2, [r3, #0]
  12:	370c      	adds	r7, #12
  14:	46bd      	mov	sp, r7
  16:	f85d 7b04 	ldr.w	r7, [sp], #4
  1a:	4770      	bx	lr

Disassembly of section .text.I2SRxFIFOEnable:

00000000 <I2SRxFIFOEnable>:
   0:	b480      	push	{r7}
   2:	b085      	sub	sp, #20
   4:	af00      	add	r7, sp, #0
   6:	60f8      	str	r0, [r7, #12]
   8:	60b9      	str	r1, [r7, #8]
   a:	607a      	str	r2, [r7, #4]
   c:	68fb      	ldr	r3, [r7, #12]
   e:	f503 5380 	add.w	r3, r3, #4096	; 0x1000
  12:	3308      	adds	r3, #8
  14:	68ba      	ldr	r2, [r7, #8]
  16:	0212      	lsls	r2, r2, #8
  18:	b291      	uxth	r1, r2
  1a:	687a      	ldr	r2, [r7, #4]
  1c:	f002 021f 	and.w	r2, r2, #31
  20:	430a      	orrs	r2, r1
  22:	f442 3280 	orr.w	r2, r2, #65536	; 0x10000
  26:	601a      	str	r2, [r3, #0]
  28:	3714      	adds	r7, #20
  2a:	46bd      	mov	sp, r7
  2c:	f85d 7b04 	ldr.w	r7, [sp], #4
  30:	4770      	bx	lr
  32:	bf00      	nop

Disassembly of section .text.I2SRxFIFODisable:

00000000 <I2SRxFIFODisable>:
   0:	b480      	push	{r7}
   2:	b083      	sub	sp, #12
   4:	af00      	add	r7, sp, #0
   6:	6078      	str	r0, [r7, #4]
   8:	687b      	ldr	r3, [r7, #4]
   a:	f503 5380 	add.w	r3, r3, #4096	; 0x1000
   e:	3308      	adds	r3, #8
  10:	2200      	movs	r2, #0
  12:	601a      	str	r2, [r3, #0]
  14:	370c      	adds	r7, #12
  16:	46bd      	mov	sp, r7
  18:	f85d 7b04 	ldr.w	r7, [sp], #4
  1c:	4770      	bx	lr
  1e:	bf00      	nop

Disassembly of section .text.I2STxFIFOStatusGet:

00000000 <I2STxFIFOStatusGet>:
   0:	b480      	push	{r7}
   2:	b083      	sub	sp, #12
   4:	af00      	add	r7, sp, #0
   6:	6078      	str	r0, [r7, #4]
   8:	687b      	ldr	r3, [r7, #4]
   a:	f503 5380 	add.w	r3, r3, #4096	; 0x1000
   e:	3304      	adds	r3, #4
  10:	681b      	ldr	r3, [r3, #0]
  12:	4618      	mov	r0, r3
  14:	370c      	adds	r7, #12
  16:	46bd      	mov	sp, r7
  18:	f85d 7b04 	ldr.w	r7, [sp], #4
  1c:	4770      	bx	lr
  1e:	bf00      	nop

Disassembly of section .text.I2SRxFIFOStatusGet:

00000000 <I2SRxFIFOStatusGet>:
   0:	b480      	push	{r7}
   2:	b083      	sub	sp, #12
   4:	af00      	add	r7, sp, #0
   6:	6078      	str	r0, [r7, #4]
   8:	687b      	ldr	r3, [r7, #4]
   a:	f503 5380 	add.w	r3, r3, #4096	; 0x1000
   e:	330c      	adds	r3, #12
  10:	681b      	ldr	r3, [r3, #0]
  12:	4618      	mov	r0, r3
  14:	370c      	adds	r7, #12
  16:	46bd      	mov	sp, r7
  18:	f85d 7b04 	ldr.w	r7, [sp], #4
  1c:	4770      	bx	lr
  1e:	bf00      	nop

Disassembly of section .text.I2SSerializerConfig:

00000000 <I2SSerializerConfig>:
   0:	b480      	push	{r7}
   2:	b085      	sub	sp, #20
   4:	af00      	add	r7, sp, #0
   6:	60f8      	str	r0, [r7, #12]
   8:	60b9      	str	r1, [r7, #8]
   a:	607a      	str	r2, [r7, #4]
   c:	603b      	str	r3, [r7, #0]
   e:	687b      	ldr	r3, [r7, #4]
  10:	2b01      	cmp	r3, #1
  12:	d108      	bne.n	26 <I2SSerializerConfig+0x26>
  14:	68fb      	ldr	r3, [r7, #12]
  16:	3314      	adds	r3, #20
  18:	68fa      	ldr	r2, [r7, #12]
  1a:	3214      	adds	r2, #20
  1c:	6811      	ldr	r1, [r2, #0]
  1e:	68ba      	ldr	r2, [r7, #8]
  20:	430a      	orrs	r2, r1
  22:	601a      	str	r2, [r3, #0]
  24:	e008      	b.n	38 <I2SSerializerConfig+0x38>
  26:	68fb      	ldr	r3, [r7, #12]
  28:	3314      	adds	r3, #20
  2a:	68fa      	ldr	r2, [r7, #12]
  2c:	3214      	adds	r2, #20
  2e:	6811      	ldr	r1, [r2, #0]
  30:	68ba      	ldr	r2, [r7, #8]
  32:	43d2      	mvns	r2, r2
  34:	400a      	ands	r2, r1
  36:	601a      	str	r2, [r3, #0]
  38:	68bb      	ldr	r3, [r7, #8]
  3a:	3b01      	subs	r3, #1
  3c:	009a      	lsls	r2, r3, #2
  3e:	68fb      	ldr	r3, [r7, #12]
  40:	4413      	add	r3, r2
  42:	f503 73c0 	add.w	r3, r3, #384	; 0x180
  46:	6879      	ldr	r1, [r7, #4]
  48:	683a      	ldr	r2, [r7, #0]
  4a:	430a      	orrs	r2, r1
  4c:	601a      	str	r2, [r3, #0]
  4e:	3714      	adds	r7, #20
  50:	46bd      	mov	sp, r7
  52:	f85d 7b04 	ldr.w	r7, [sp], #4
  56:	4770      	bx	lr

Disassembly of section .text.I2SIntEnable:

00000000 <I2SIntEnable>:
   0:	b480      	push	{r7}
   2:	b083      	sub	sp, #12
   4:	af00      	add	r7, sp, #0
   6:	6078      	str	r0, [r7, #4]
   8:	6039      	str	r1, [r7, #0]
   a:	f246 0394 	movw	r3, #24724	; 0x6094
   e:	f2c4 4302 	movt	r3, #17410	; 0x4402
  12:	f246 0294 	movw	r2, #24724	; 0x6094
  16:	f2c4 4202 	movt	r2, #17410	; 0x4402
  1a:	6811      	ldr	r1, [r2, #0]
  1c:	683a      	ldr	r2, [r7, #0]
  1e:	f002 4240 	and.w	r2, r2, #3221225472	; 0xc0000000
  22:	0d12      	lsrs	r2, r2, #20
  24:	430a      	orrs	r2, r1
  26:	601a      	str	r2, [r3, #0]
  28:	687b      	ldr	r3, [r7, #4]
  2a:	33bc      	adds	r3, #188	; 0xbc
  2c:	687a      	ldr	r2, [r7, #4]
  2e:	32bc      	adds	r2, #188	; 0xbc
  30:	6811      	ldr	r1, [r2, #0]
  32:	683a      	ldr	r2, [r7, #0]
  34:	b2d2      	uxtb	r2, r2
  36:	430a      	orrs	r2, r1
  38:	601a      	str	r2, [r3, #0]
  3a:	687b      	ldr	r3, [r7, #4]
  3c:	337c      	adds	r3, #124	; 0x7c
  3e:	687a      	ldr	r2, [r7, #4]
  40:	327c      	adds	r2, #124	; 0x7c
  42:	6811      	ldr	r1, [r2, #0]
  44:	683a      	ldr	r2, [r7, #0]
  46:	0c12      	lsrs	r2, r2, #16
  48:	b2d2      	uxtb	r2, r2
  4a:	430a      	orrs	r2, r1
  4c:	601a      	str	r2, [r3, #0]
  4e:	370c      	adds	r7, #12
  50:	46bd      	mov	sp, r7
  52:	f85d 7b04 	ldr.w	r7, [sp], #4
  56:	4770      	bx	lr

Disassembly of section .text.I2SIntDisable:

00000000 <I2SIntDisable>:
   0:	b480      	push	{r7}
   2:	b083      	sub	sp, #12
   4:	af00      	add	r7, sp, #0
   6:	6078      	str	r0, [r7, #4]
   8:	6039      	str	r1, [r7, #0]
   a:	f246 0390 	movw	r3, #24720	; 0x6090
   e:	f2c4 4302 	movt	r3, #17410	; 0x4402
  12:	f246 0290 	movw	r2, #24720	; 0x6090
  16:	f2c4 4202 	movt	r2, #17410	; 0x4402
  1a:	6811      	ldr	r1, [r2, #0]
  1c:	683a      	ldr	r2, [r7, #0]
  1e:	f002 4240 	and.w	r2, r2, #3221225472	; 0xc0000000
  22:	0d12      	lsrs	r2, r2, #20
  24:	430a      	orrs	r2, r1
  26:	601a      	str	r2, [r3, #0]
  28:	687b      	ldr	r3, [r7, #4]
  2a:	33bc      	adds	r3, #188	; 0xbc
  2c:	687a      	ldr	r2, [r7, #4]
  2e:	32bc      	adds	r2, #188	; 0xbc
  30:	6811      	ldr	r1, [r2, #0]
  32:	683a      	ldr	r2, [r7, #0]
  34:	b2d2      	uxtb	r2, r2
  36:	43d2      	mvns	r2, r2
  38:	400a      	ands	r2, r1
  3a:	601a      	str	r2, [r3, #0]
  3c:	687b      	ldr	r3, [r7, #4]
  3e:	337c      	adds	r3, #124	; 0x7c
  40:	687a      	ldr	r2, [r7, #4]
  42:	327c      	adds	r2, #124	; 0x7c
  44:	6811      	ldr	r1, [r2, #0]
  46:	683a      	ldr	r2, [r7, #0]
  48:	0c12      	lsrs	r2, r2, #16
  4a:	b2d2      	uxtb	r2, r2
  4c:	43d2      	mvns	r2, r2
  4e:	400a      	ands	r2, r1
  50:	601a      	str	r2, [r3, #0]
  52:	370c      	adds	r7, #12
  54:	46bd      	mov	sp, r7
  56:	f85d 7b04 	ldr.w	r7, [sp], #4
  5a:	4770      	bx	lr

Disassembly of section .text.I2SIntStatus:

00000000 <I2SIntStatus>:
   0:	b480      	push	{r7}
   2:	b085      	sub	sp, #20
   4:	af00      	add	r7, sp, #0
   6:	6078      	str	r0, [r7, #4]
   8:	f246 03a4 	movw	r3, #24740	; 0x60a4
   c:	f2c4 4302 	movt	r3, #17410	; 0x4402
  10:	681b      	ldr	r3, [r3, #0]
  12:	051b      	lsls	r3, r3, #20
  14:	60fb      	str	r3, [r7, #12]
  16:	68fb      	ldr	r3, [r7, #12]
  18:	f003 4340 	and.w	r3, r3, #3221225472	; 0xc0000000
  1c:	60fb      	str	r3, [r7, #12]
  1e:	687b      	ldr	r3, [r7, #4]
  20:	33c0      	adds	r3, #192	; 0xc0
  22:	681b      	ldr	r3, [r3, #0]
  24:	68fa      	ldr	r2, [r7, #12]
  26:	4313      	orrs	r3, r2
  28:	60fb      	str	r3, [r7, #12]
  2a:	687b      	ldr	r3, [r7, #4]
  2c:	3380      	adds	r3, #128	; 0x80
  2e:	681b      	ldr	r3, [r3, #0]
  30:	041b      	lsls	r3, r3, #16
  32:	68fa      	ldr	r2, [r7, #12]
  34:	4313      	orrs	r3, r2
  36:	60fb      	str	r3, [r7, #12]
  38:	68fb      	ldr	r3, [r7, #12]
  3a:	4618      	mov	r0, r3
  3c:	3714      	adds	r7, #20
  3e:	46bd      	mov	sp, r7
  40:	f85d 7b04 	ldr.w	r7, [sp], #4
  44:	4770      	bx	lr
  46:	bf00      	nop

Disassembly of section .text.I2SIntClear:

00000000 <I2SIntClear>:
   0:	b480      	push	{r7}
   2:	b083      	sub	sp, #12
   4:	af00      	add	r7, sp, #0
   6:	6078      	str	r0, [r7, #4]
   8:	6039      	str	r1, [r7, #0]
   a:	f246 039c 	movw	r3, #24732	; 0x609c
   e:	f2c4 4302 	movt	r3, #17410	; 0x4402
  12:	f246 029c 	movw	r2, #24732	; 0x609c
  16:	f2c4 4202 	movt	r2, #17410	; 0x4402
  1a:	6811      	ldr	r1, [r2, #0]
  1c:	683a      	ldr	r2, [r7, #0]
  1e:	f002 4240 	and.w	r2, r2, #3221225472	; 0xc0000000
  22:	0d12      	lsrs	r2, r2, #20
  24:	430a      	orrs	r2, r1
  26:	601a      	str	r2, [r3, #0]
  28:	687b      	ldr	r3, [r7, #4]
  2a:	33c0      	adds	r3, #192	; 0xc0
  2c:	683a      	ldr	r2, [r7, #0]
  2e:	f3c2 0208 	ubfx	r2, r2, #0, #9
  32:	601a      	str	r2, [r3, #0]
  34:	687b      	ldr	r3, [r7, #4]
  36:	3380      	adds	r3, #128	; 0x80
  38:	683a      	ldr	r2, [r7, #0]
  3a:	0c12      	lsrs	r2, r2, #16
  3c:	f3c2 0208 	ubfx	r2, r2, #0, #9
  40:	601a      	str	r2, [r3, #0]
  42:	370c      	adds	r7, #12
  44:	46bd      	mov	sp, r7
  46:	f85d 7b04 	ldr.w	r7, [sp], #4
  4a:	4770      	bx	lr

Disassembly of section .text.I2SIntRegister:

00000000 <I2SIntRegister>:
   0:	b580      	push	{r7, lr}
   2:	b082      	sub	sp, #8
   4:	af00      	add	r7, sp, #0
   6:	6078      	str	r0, [r7, #4]
   8:	6039      	str	r1, [r7, #0]
   a:	20b1      	movs	r0, #177	; 0xb1
   c:	6839      	ldr	r1, [r7, #0]
   e:	f7ff fffe 	bl	0 <IntRegister>
  12:	20b1      	movs	r0, #177	; 0xb1
  14:	f7ff fffe 	bl	0 <IntEnable>
  18:	3708      	adds	r7, #8
  1a:	46bd      	mov	sp, r7
  1c:	bd80      	pop	{r7, pc}
  1e:	bf00      	nop

Disassembly of section .text.I2SIntUnregister:

00000000 <I2SIntUnregister>:
   0:	b580      	push	{r7, lr}
   2:	b082      	sub	sp, #8
   4:	af00      	add	r7, sp, #0
   6:	6078      	str	r0, [r7, #4]
   8:	20b1      	movs	r0, #177	; 0xb1
   a:	f7ff fffe 	bl	0 <IntDisable>
   e:	20b1      	movs	r0, #177	; 0xb1
  10:	f7ff fffe 	bl	0 <IntUnregister>
  14:	3708      	adds	r7, #8
  16:	46bd      	mov	sp, r7
  18:	bd80      	pop	{r7, pc}
  1a:	bf00      	nop

Disassembly of section .text.PinModeSet:

00000000 <PinModeSet>:
   0:	b480      	push	{r7}
   2:	b085      	sub	sp, #20
   4:	af00      	add	r7, sp, #0
   6:	6078      	str	r0, [r7, #4]
   8:	6039      	str	r1, [r7, #0]
   a:	687b      	ldr	r3, [r7, #4]
   c:	f003 023f 	and.w	r2, r3, #63	; 0x3f
  10:	f240 0300 	movw	r3, #0
  14:	f2c0 0300 	movt	r3, #0
  18:	f853 3022 	ldr.w	r3, [r3, r2, lsl #2]
  1c:	60fb      	str	r3, [r7, #12]
  1e:	68fb      	ldr	r3, [r7, #12]
  20:	009a      	lsls	r2, r3, #2
  22:	f24e 03a0 	movw	r3, #57504	; 0xe0a0
  26:	f2c4 4302 	movt	r3, #17410	; 0x4402
  2a:	4413      	add	r3, r2
  2c:	60fb      	str	r3, [r7, #12]
  2e:	68fb      	ldr	r3, [r7, #12]
  30:	68fa      	ldr	r2, [r7, #12]
  32:	6812      	ldr	r2, [r2, #0]
  34:	f022 010f 	bic.w	r1, r2, #15
  38:	683a      	ldr	r2, [r7, #0]
  3a:	430a      	orrs	r2, r1
  3c:	f422 6240 	bic.w	r2, r2, #3072	; 0xc00
  40:	601a      	str	r2, [r3, #0]
  42:	3714      	adds	r7, #20
  44:	46bd      	mov	sp, r7
  46:	f85d 7b04 	ldr.w	r7, [sp], #4
  4a:	4770      	bx	lr

Disassembly of section .text.PinModeGet:

00000000 <PinModeGet>:
   0:	b480      	push	{r7}
   2:	b085      	sub	sp, #20
   4:	af00      	add	r7, sp, #0
   6:	6078      	str	r0, [r7, #4]
   8:	687b      	ldr	r3, [r7, #4]
   a:	f003 023f 	and.w	r2, r3, #63	; 0x3f
   e:	f240 0300 	movw	r3, #0
  12:	f2c0 0300 	movt	r3, #0
  16:	f853 3022 	ldr.w	r3, [r3, r2, lsl #2]
  1a:	60fb      	str	r3, [r7, #12]
  1c:	68fb      	ldr	r3, [r7, #12]
  1e:	009a      	lsls	r2, r3, #2
  20:	f24e 03a0 	movw	r3, #57504	; 0xe0a0
  24:	f2c4 4302 	movt	r3, #17410	; 0x4402
  28:	4413      	add	r3, r2
  2a:	60fb      	str	r3, [r7, #12]
  2c:	68fb      	ldr	r3, [r7, #12]
  2e:	681b      	ldr	r3, [r3, #0]
  30:	f003 030f 	and.w	r3, r3, #15
  34:	4618      	mov	r0, r3
  36:	3714      	adds	r7, #20
  38:	46bd      	mov	sp, r7
  3a:	f85d 7b04 	ldr.w	r7, [sp], #4
  3e:	4770      	bx	lr

Disassembly of section .text.PinDirModeSet:

00000000 <PinDirModeSet>:
   0:	b480      	push	{r7}
   2:	b085      	sub	sp, #20
   4:	af00      	add	r7, sp, #0
   6:	6078      	str	r0, [r7, #4]
   8:	6039      	str	r1, [r7, #0]
   a:	687b      	ldr	r3, [r7, #4]
   c:	f003 023f 	and.w	r2, r3, #63	; 0x3f
  10:	f240 0300 	movw	r3, #0
  14:	f2c0 0300 	movt	r3, #0
  18:	f853 3022 	ldr.w	r3, [r3, r2, lsl #2]
  1c:	60fb      	str	r3, [r7, #12]
  1e:	68fb      	ldr	r3, [r7, #12]
  20:	009a      	lsls	r2, r3, #2
  22:	f24e 03a0 	movw	r3, #57504	; 0xe0a0
  26:	f2c4 4302 	movt	r3, #17410	; 0x4402
  2a:	4413      	add	r3, r2
  2c:	60fb      	str	r3, [r7, #12]
  2e:	68fb      	ldr	r3, [r7, #12]
  30:	68fa      	ldr	r2, [r7, #12]
  32:	6812      	ldr	r2, [r2, #0]
  34:	f422 6140 	bic.w	r1, r2, #3072	; 0xc00
  38:	683a      	ldr	r2, [r7, #0]
  3a:	430a      	orrs	r2, r1
  3c:	601a      	str	r2, [r3, #0]
  3e:	3714      	adds	r7, #20
  40:	46bd      	mov	sp, r7
  42:	f85d 7b04 	ldr.w	r7, [sp], #4
  46:	4770      	bx	lr

Disassembly of section .text.PinDirModeGet:

00000000 <PinDirModeGet>:
   0:	b480      	push	{r7}
   2:	b085      	sub	sp, #20
   4:	af00      	add	r7, sp, #0
   6:	6078      	str	r0, [r7, #4]
   8:	687b      	ldr	r3, [r7, #4]
   a:	f003 023f 	and.w	r2, r3, #63	; 0x3f
   e:	f240 0300 	movw	r3, #0
  12:	f2c0 0300 	movt	r3, #0
  16:	f853 3022 	ldr.w	r3, [r3, r2, lsl #2]
  1a:	60fb      	str	r3, [r7, #12]
  1c:	68fb      	ldr	r3, [r7, #12]
  1e:	009a      	lsls	r2, r3, #2
  20:	f24e 03a0 	movw	r3, #57504	; 0xe0a0
  24:	f2c4 4302 	movt	r3, #17410	; 0x4402
  28:	4413      	add	r3, r2
  2a:	60fb      	str	r3, [r7, #12]
  2c:	68fb      	ldr	r3, [r7, #12]
  2e:	681b      	ldr	r3, [r3, #0]
  30:	f403 6340 	and.w	r3, r3, #3072	; 0xc00
  34:	4618      	mov	r0, r3
  36:	3714      	adds	r7, #20
  38:	46bd      	mov	sp, r7
  3a:	f85d 7b04 	ldr.w	r7, [sp], #4
  3e:	4770      	bx	lr

Disassembly of section .text.PinConfigGet:

00000000 <PinConfigGet>:
   0:	b480      	push	{r7}
   2:	b087      	sub	sp, #28
   4:	af00      	add	r7, sp, #0
   6:	60f8      	str	r0, [r7, #12]
   8:	60b9      	str	r1, [r7, #8]
   a:	607a      	str	r2, [r7, #4]
   c:	68fb      	ldr	r3, [r7, #12]
   e:	f003 023f 	and.w	r2, r3, #63	; 0x3f
  12:	f240 0300 	movw	r3, #0
  16:	f2c0 0300 	movt	r3, #0
  1a:	f853 3022 	ldr.w	r3, [r3, r2, lsl #2]
  1e:	617b      	str	r3, [r7, #20]
  20:	697b      	ldr	r3, [r7, #20]
  22:	009a      	lsls	r2, r3, #2
  24:	f24e 03a0 	movw	r3, #57504	; 0xe0a0
  28:	f2c4 4302 	movt	r3, #17410	; 0x4402
  2c:	4413      	add	r3, r2
  2e:	617b      	str	r3, [r7, #20]
  30:	697b      	ldr	r3, [r7, #20]
  32:	681b      	ldr	r3, [r3, #0]
  34:	f403 7244 	and.w	r2, r3, #784	; 0x310
  38:	687b      	ldr	r3, [r7, #4]
  3a:	601a      	str	r2, [r3, #0]
  3c:	697b      	ldr	r3, [r7, #20]
  3e:	681b      	ldr	r3, [r3, #0]
  40:	f003 02e0 	and.w	r2, r3, #224	; 0xe0
  44:	68bb      	ldr	r3, [r7, #8]
  46:	601a      	str	r2, [r3, #0]
  48:	371c      	adds	r7, #28
  4a:	46bd      	mov	sp, r7
  4c:	f85d 7b04 	ldr.w	r7, [sp], #4
  50:	4770      	bx	lr
  52:	bf00      	nop

Disassembly of section .text.PinConfigSet:

00000000 <PinConfigSet>:
   0:	b480      	push	{r7}
   2:	b087      	sub	sp, #28
   4:	af00      	add	r7, sp, #0
   6:	60f8      	str	r0, [r7, #12]
   8:	60b9      	str	r1, [r7, #8]
   a:	607a      	str	r2, [r7, #4]
   c:	68fb      	ldr	r3, [r7, #12]
   e:	f003 023f 	and.w	r2, r3, #63	; 0x3f
  12:	f240 0300 	movw	r3, #0
  16:	f2c0 0300 	movt	r3, #0
  1a:	f853 3022 	ldr.w	r3, [r3, r2, lsl #2]
  1e:	617b      	str	r3, [r7, #20]
  20:	687b      	ldr	r3, [r7, #4]
  22:	f1b3 5f80 	cmp.w	r3, #268435456	; 0x10000000
  26:	d11f      	bne.n	68 <PinConfigSet+0x68>
  28:	f24e 1344 	movw	r3, #57668	; 0xe144
  2c:	f2c4 4302 	movt	r3, #17410	; 0x4402
  30:	f24e 1244 	movw	r2, #57668	; 0xe144
  34:	f2c4 4202 	movt	r2, #17410	; 0x4402
  38:	6811      	ldr	r1, [r2, #0]
  3a:	697a      	ldr	r2, [r7, #20]
  3c:	2080      	movs	r0, #128	; 0x80
  3e:	fa00 f202 	lsl.w	r2, r0, r2
  42:	f402 52f0 	and.w	r2, r2, #7680	; 0x1e00
  46:	430a      	orrs	r2, r1
  48:	601a      	str	r2, [r3, #0]
  4a:	697b      	ldr	r3, [r7, #20]
  4c:	009a      	lsls	r2, r3, #2
  4e:	f24e 03a0 	movw	r3, #57504	; 0xe0a0
  52:	f2c4 4302 	movt	r3, #17410	; 0x4402
  56:	4413      	add	r3, r2
  58:	617b      	str	r3, [r7, #20]
  5a:	697b      	ldr	r3, [r7, #20]
  5c:	697a      	ldr	r2, [r7, #20]
  5e:	6812      	ldr	r2, [r2, #0]
  60:	f442 6240 	orr.w	r2, r2, #3072	; 0xc00
  64:	601a      	str	r2, [r3, #0]
  66:	e023      	b.n	b0 <PinConfigSet+0xb0>
  68:	f24e 1344 	movw	r3, #57668	; 0xe144
  6c:	f2c4 4302 	movt	r3, #17410	; 0x4402
  70:	f24e 1244 	movw	r2, #57668	; 0xe144
  74:	f2c4 4202 	movt	r2, #17410	; 0x4402
  78:	6811      	ldr	r1, [r2, #0]
  7a:	697a      	ldr	r2, [r7, #20]
  7c:	2080      	movs	r0, #128	; 0x80
  7e:	fa00 f202 	lsl.w	r2, r0, r2
  82:	f402 52f0 	and.w	r2, r2, #7680	; 0x1e00
  86:	43d2      	mvns	r2, r2
  88:	400a      	ands	r2, r1
  8a:	601a      	str	r2, [r3, #0]
  8c:	697b      	ldr	r3, [r7, #20]
  8e:	009a      	lsls	r2, r3, #2
  90:	f24e 03a0 	movw	r3, #57504	; 0xe0a0
  94:	f2c4 4302 	movt	r3, #17410	; 0x4402
  98:	4413      	add	r3, r2
  9a:	617b      	str	r3, [r7, #20]
  9c:	697b      	ldr	r3, [r7, #20]
  9e:	697a      	ldr	r2, [r7, #20]
  a0:	6812      	ldr	r2, [r2, #0]
  a2:	f422 717c 	bic.w	r1, r2, #1008	; 0x3f0
  a6:	68b8      	ldr	r0, [r7, #8]
  a8:	687a      	ldr	r2, [r7, #4]
  aa:	4302      	orrs	r2, r0
  ac:	430a      	orrs	r2, r1
  ae:	601a      	str	r2, [r3, #0]
  b0:	371c      	adds	r7, #28
  b2:	46bd      	mov	sp, r7
  b4:	f85d 7b04 	ldr.w	r7, [sp], #4
  b8:	4770      	bx	lr
  ba:	bf00      	nop

Disassembly of section .text.PinTypeUART:

00000000 <PinTypeUART>:
   0:	b580      	push	{r7, lr}
   2:	b082      	sub	sp, #8
   4:	af00      	add	r7, sp, #0
   6:	6078      	str	r0, [r7, #4]
   8:	6039      	str	r1, [r7, #0]
   a:	6878      	ldr	r0, [r7, #4]
   c:	6839      	ldr	r1, [r7, #0]
   e:	f7ff fffe 	bl	0 <PinTypeUART>
  12:	6878      	ldr	r0, [r7, #4]
  14:	2120      	movs	r1, #32
  16:	2200      	movs	r2, #0
  18:	f7ff fffe 	bl	0 <PinTypeUART>
  1c:	3708      	adds	r7, #8
  1e:	46bd      	mov	sp, r7
  20:	bd80      	pop	{r7, pc}
  22:	bf00      	nop

Disassembly of section .text.PinTypeI2C:

00000000 <PinTypeI2C>:
   0:	b580      	push	{r7, lr}
   2:	b082      	sub	sp, #8
   4:	af00      	add	r7, sp, #0
   6:	6078      	str	r0, [r7, #4]
   8:	6039      	str	r1, [r7, #0]
   a:	6878      	ldr	r0, [r7, #4]
   c:	6839      	ldr	r1, [r7, #0]
   e:	f7ff fffe 	bl	0 <PinTypeI2C>
  12:	6878      	ldr	r0, [r7, #4]
  14:	2120      	movs	r1, #32
  16:	f44f 7288 	mov.w	r2, #272	; 0x110
  1a:	f7ff fffe 	bl	0 <PinTypeI2C>
  1e:	3708      	adds	r7, #8
  20:	46bd      	mov	sp, r7
  22:	bd80      	pop	{r7, pc}

Disassembly of section .text.PinTypeSPI:

00000000 <PinTypeSPI>:
   0:	b580      	push	{r7, lr}
   2:	b082      	sub	sp, #8
   4:	af00      	add	r7, sp, #0
   6:	6078      	str	r0, [r7, #4]
   8:	6039      	str	r1, [r7, #0]
   a:	6878      	ldr	r0, [r7, #4]
   c:	6839      	ldr	r1, [r7, #0]
   e:	f7ff fffe 	bl	0 <PinTypeSPI>
  12:	6878      	ldr	r0, [r7, #4]
  14:	2160      	movs	r1, #96	; 0x60
  16:	2200      	movs	r2, #0
  18:	f7ff fffe 	bl	0 <PinTypeSPI>
  1c:	3708      	adds	r7, #8
  1e:	46bd      	mov	sp, r7
  20:	bd80      	pop	{r7, pc}
  22:	bf00      	nop

Disassembly of section .text.PinTypeI2S:

00000000 <PinTypeI2S>:
   0:	b580      	push	{r7, lr}
   2:	b082      	sub	sp, #8
   4:	af00      	add	r7, sp, #0
   6:	6078      	str	r0, [r7, #4]
   8:	6039      	str	r1, [r7, #0]
   a:	6878      	ldr	r0, [r7, #4]
   c:	6839      	ldr	r1, [r7, #0]
   e:	f7ff fffe 	bl	0 <PinTypeI2S>
  12:	6878      	ldr	r0, [r7, #4]
  14:	2160      	movs	r1, #96	; 0x60
  16:	2200      	movs	r2, #0
  18:	f7ff fffe 	bl	0 <PinTypeI2S>
  1c:	3708      	adds	r7, #8
  1e:	46bd      	mov	sp, r7
  20:	bd80      	pop	{r7, pc}
  22:	bf00      	nop

Disassembly of section .text.PinTypeTimer:

00000000 <PinTypeTimer>:
   0:	b580      	push	{r7, lr}
   2:	b082      	sub	sp, #8
   4:	af00      	add	r7, sp, #0
   6:	6078      	str	r0, [r7, #4]
   8:	6039      	str	r1, [r7, #0]
   a:	6878      	ldr	r0, [r7, #4]
   c:	6839      	ldr	r1, [r7, #0]
   e:	f7ff fffe 	bl	0 <PinTypeTimer>
  12:	6878      	ldr	r0, [r7, #4]
  14:	2160      	movs	r1, #96	; 0x60
  16:	2200      	movs	r2, #0
  18:	f7ff fffe 	bl	0 <PinTypeTimer>
  1c:	3708      	adds	r7, #8
  1e:	46bd      	mov	sp, r7
  20:	bd80      	pop	{r7, pc}
  22:	bf00      	nop

Disassembly of section .text.PinTypeCamera:

00000000 <PinTypeCamera>:
   0:	b580      	push	{r7, lr}
   2:	b082      	sub	sp, #8
   4:	af00      	add	r7, sp, #0
   6:	6078      	str	r0, [r7, #4]
   8:	6039      	str	r1, [r7, #0]
   a:	6878      	ldr	r0, [r7, #4]
   c:	6839      	ldr	r1, [r7, #0]
   e:	f7ff fffe 	bl	0 <PinTypeCamera>
  12:	6878      	ldr	r0, [r7, #4]
  14:	2160      	movs	r1, #96	; 0x60
  16:	2200      	movs	r2, #0
  18:	f7ff fffe 	bl	0 <PinTypeCamera>
  1c:	3708      	adds	r7, #8
  1e:	46bd      	mov	sp, r7
  20:	bd80      	pop	{r7, pc}
  22:	bf00      	nop

Disassembly of section .text.PinTypeGPIO:

00000000 <PinTypeGPIO>:
   0:	b580      	push	{r7, lr}
   2:	b084      	sub	sp, #16
   4:	af00      	add	r7, sp, #0
   6:	60f8      	str	r0, [r7, #12]
   8:	60b9      	str	r1, [r7, #8]
   a:	4613      	mov	r3, r2
   c:	71fb      	strb	r3, [r7, #7]
   e:	79fb      	ldrb	r3, [r7, #7]
  10:	2b00      	cmp	r3, #0
  12:	d005      	beq.n	20 <PinTypeGPIO+0x20>
  14:	68f8      	ldr	r0, [r7, #12]
  16:	2120      	movs	r1, #32
  18:	2210      	movs	r2, #16
  1a:	f7ff fffe 	bl	0 <PinTypeGPIO>
  1e:	e004      	b.n	2a <PinTypeGPIO+0x2a>
  20:	68f8      	ldr	r0, [r7, #12]
  22:	2120      	movs	r1, #32
  24:	2200      	movs	r2, #0
  26:	f7ff fffe 	bl	0 <PinTypeGPIO>
  2a:	68f8      	ldr	r0, [r7, #12]
  2c:	68b9      	ldr	r1, [r7, #8]
  2e:	f7ff fffe 	bl	0 <PinTypeGPIO>
  32:	3710      	adds	r7, #16
  34:	46bd      	mov	sp, r7
  36:	bd80      	pop	{r7, pc}

Disassembly of section .text.PinTypeADC:

00000000 <PinTypeADC>:
   0:	b580      	push	{r7, lr}
   2:	b082      	sub	sp, #8
   4:	af00      	add	r7, sp, #0
   6:	6078      	str	r0, [r7, #4]
   8:	6039      	str	r1, [r7, #0]
   a:	6878      	ldr	r0, [r7, #4]
   c:	2120      	movs	r1, #32
   e:	f04f 5280 	mov.w	r2, #268435456	; 0x10000000
  12:	f7ff fffe 	bl	0 <PinTypeADC>
  16:	3708      	adds	r7, #8
  18:	46bd      	mov	sp, r7
  1a:	bd80      	pop	{r7, pc}

Disassembly of section .text.PinTypeSDHost:

00000000 <PinTypeSDHost>:
   0:	b580      	push	{r7, lr}
   2:	b082      	sub	sp, #8
   4:	af00      	add	r7, sp, #0
   6:	6078      	str	r0, [r7, #4]
   8:	6039      	str	r1, [r7, #0]
   a:	6878      	ldr	r0, [r7, #4]
   c:	6839      	ldr	r1, [r7, #0]
   e:	f7ff fffe 	bl	0 <PinTypeSDHost>
  12:	6878      	ldr	r0, [r7, #4]
  14:	2120      	movs	r1, #32
  16:	2200      	movs	r2, #0
  18:	f7ff fffe 	bl	0 <PinTypeSDHost>
  1c:	3708      	adds	r7, #8
  1e:	46bd      	mov	sp, r7
  20:	bd80      	pop	{r7, pc}
  22:	bf00      	nop

Disassembly of section .text.RTCUseSet:

00000000 <RTCUseSet>:
   0:	b580      	push	{r7, lr}
   2:	b082      	sub	sp, #8
   4:	af00      	add	r7, sp, #0
   6:	f64f 4322 	movw	r3, #64546	; 0xfc22
   a:	f2c4 4302 	movt	r3, #17410	; 0x4402
   e:	881b      	ldrh	r3, [r3, #0]
  10:	ea6f 4343 	mvn.w	r3, r3, lsl #17
  14:	ea6f 4353 	mvn.w	r3, r3, lsr #17
  18:	80fb      	strh	r3, [r7, #6]
  1a:	f241 40d5 	movw	r0, #5333	; 0x14d5
  1e:	f7ff fffe 	bl	0 <UtilsDelay>
  22:	f64f 4322 	movw	r3, #64546	; 0xfc22
  26:	f2c4 4302 	movt	r3, #17410	; 0x4402
  2a:	88fa      	ldrh	r2, [r7, #6]
  2c:	801a      	strh	r2, [r3, #0]
  2e:	3708      	adds	r7, #8
  30:	46bd      	mov	sp, r7
  32:	bd80      	pop	{r7, pc}

Disassembly of section .text.IsRTCUsed:

00000000 <IsRTCUsed>:
   0:	b580      	push	{r7, lr}
   2:	b082      	sub	sp, #8
   4:	af00      	add	r7, sp, #0
   6:	f64f 4322 	movw	r3, #64546	; 0xfc22
   a:	f2c4 4302 	movt	r3, #17410	; 0x4402
   e:	881b      	ldrh	r3, [r3, #0]
  10:	80fb      	strh	r3, [r7, #6]
  12:	f241 40d5 	movw	r0, #5333	; 0x14d5
  16:	f7ff fffe 	bl	0 <UtilsDelay>
  1a:	88fb      	ldrh	r3, [r7, #6]
  1c:	0bdb      	lsrs	r3, r3, #15
  1e:	b2db      	uxtb	r3, r3
  20:	4618      	mov	r0, r3
  22:	3708      	adds	r7, #8
  24:	46bd      	mov	sp, r7
  26:	bd80      	pop	{r7, pc}

Disassembly of section .text.RTCU16MSecRegRead:

00000000 <RTCU16MSecRegRead>:
   0:	b580      	push	{r7, lr}
   2:	b082      	sub	sp, #8
   4:	af00      	add	r7, sp, #0
   6:	f64f 4322 	movw	r3, #64546	; 0xfc22
   a:	f2c4 4302 	movt	r3, #17410	; 0x4402
   e:	881b      	ldrh	r3, [r3, #0]
  10:	80fb      	strh	r3, [r7, #6]
  12:	f241 40d5 	movw	r0, #5333	; 0x14d5
  16:	f7ff fffe 	bl	0 <UtilsDelay>
  1a:	88fb      	ldrh	r3, [r7, #6]
  1c:	f3c3 0309 	ubfx	r3, r3, #0, #10
  20:	b29b      	uxth	r3, r3
  22:	4618      	mov	r0, r3
  24:	3708      	adds	r7, #8
  26:	46bd      	mov	sp, r7
  28:	bd80      	pop	{r7, pc}
  2a:	bf00      	nop

Disassembly of section .text.RTCU16MSecRegWrite:

00000000 <RTCU16MSecRegWrite>:
   0:	b580      	push	{r7, lr}
   2:	b084      	sub	sp, #16
   4:	af00      	add	r7, sp, #0
   6:	4603      	mov	r3, r0
   8:	80fb      	strh	r3, [r7, #6]
   a:	f64f 4322 	movw	r3, #64546	; 0xfc22
   e:	f2c4 4302 	movt	r3, #17410	; 0x4402
  12:	881b      	ldrh	r3, [r3, #0]
  14:	81fb      	strh	r3, [r7, #14]
  16:	f241 40d5 	movw	r0, #5333	; 0x14d5
  1a:	f7ff fffe 	bl	0 <UtilsDelay>
  1e:	f64f 4322 	movw	r3, #64546	; 0xfc22
  22:	f2c4 4302 	movt	r3, #17410	; 0x4402
  26:	89fa      	ldrh	r2, [r7, #14]
  28:	f422 727f 	bic.w	r2, r2, #1020	; 0x3fc
  2c:	f022 0203 	bic.w	r2, r2, #3
  30:	b291      	uxth	r1, r2
  32:	88fa      	ldrh	r2, [r7, #6]
  34:	430a      	orrs	r2, r1
  36:	b292      	uxth	r2, r2
  38:	b292      	uxth	r2, r2
  3a:	801a      	strh	r2, [r3, #0]
  3c:	3710      	adds	r7, #16
  3e:	46bd      	mov	sp, r7
  40:	bd80      	pop	{r7, pc}
  42:	bf00      	nop

Disassembly of section .text.RTCU32SecRegRead:

00000000 <RTCU32SecRegRead>:
   0:	b580      	push	{r7, lr}
   2:	af00      	add	r7, sp, #0
   4:	f64f 4024 	movw	r0, #64548	; 0xfc24
   8:	f2c4 4002 	movt	r0, #17410	; 0x4402
   c:	f7ff fffe 	bl	0 <RTCU32SecRegRead>
  10:	4603      	mov	r3, r0
  12:	4618      	mov	r0, r3
  14:	bd80      	pop	{r7, pc}
  16:	bf00      	nop

Disassembly of section .text.RTCU32SecRegWrite:

00000000 <RTCU32SecRegWrite>:
   0:	b580      	push	{r7, lr}
   2:	b082      	sub	sp, #8
   4:	af00      	add	r7, sp, #0
   6:	6078      	str	r0, [r7, #4]
   8:	f64f 4024 	movw	r0, #64548	; 0xfc24
   c:	f2c4 4002 	movt	r0, #17410	; 0x4402
  10:	6879      	ldr	r1, [r7, #4]
  12:	f7ff fffe 	bl	0 <RTCU32SecRegWrite>
  16:	3708      	adds	r7, #8
  18:	46bd      	mov	sp, r7
  1a:	bd80      	pop	{r7, pc}

Disassembly of section .text.PRCMSOCReset:

00000000 <PRCMSOCReset>:
   0:	b480      	push	{r7}
   2:	af00      	add	r7, sp, #0
   4:	f24d 1308 	movw	r3, #53512	; 0xd108
   8:	f2c4 4302 	movt	r3, #17410	; 0x4402
   c:	f24d 1208 	movw	r2, #53512	; 0xd108
  10:	f2c4 4202 	movt	r2, #17410	; 0x4402
  14:	6812      	ldr	r2, [r2, #0]
  16:	f042 0201 	orr.w	r2, r2, #1
  1a:	601a      	str	r2, [r3, #0]
  1c:	46bd      	mov	sp, r7
  1e:	f85d 7b04 	ldr.w	r7, [sp], #4
  22:	4770      	bx	lr

Disassembly of section .text.PRCMMCUReset:

00000000 <PRCMMCUReset>:
   0:	b480      	push	{r7}
   2:	b083      	sub	sp, #12
   4:	af00      	add	r7, sp, #0
   6:	4603      	mov	r3, r0
   8:	71fb      	strb	r3, [r7, #7]
   a:	79fb      	ldrb	r3, [r7, #7]
   c:	2b00      	cmp	r3, #0
   e:	d006      	beq.n	1e <PRCMMCUReset+0x1e>
  10:	f44f 4350 	mov.w	r3, #53248	; 0xd000
  14:	f2c4 4302 	movt	r3, #17410	; 0x4402
  18:	2202      	movs	r2, #2
  1a:	601a      	str	r2, [r3, #0]
  1c:	e005      	b.n	2a <PRCMMCUReset+0x2a>
  1e:	f44f 4350 	mov.w	r3, #53248	; 0xd000
  22:	f2c4 4302 	movt	r3, #17410	; 0x4402
  26:	2201      	movs	r2, #1
  28:	601a      	str	r2, [r3, #0]
  2a:	370c      	adds	r7, #12
  2c:	46bd      	mov	sp, r7
  2e:	f85d 7b04 	ldr.w	r7, [sp], #4
  32:	4770      	bx	lr

Disassembly of section .text.PRCMSysResetCauseGet:

00000000 <PRCMSysResetCauseGet>:
   0:	b580      	push	{r7, lr}
   2:	b082      	sub	sp, #8
   4:	af00      	add	r7, sp, #0
   6:	f24d 030c 	movw	r3, #53260	; 0xd00c
   a:	f2c4 4302 	movt	r3, #17410	; 0x4402
   e:	681b      	ldr	r3, [r3, #0]
  10:	b2db      	uxtb	r3, r3
  12:	607b      	str	r3, [r7, #4]
  14:	687b      	ldr	r3, [r7, #4]
  16:	2b00      	cmp	r3, #0
  18:	d10c      	bne.n	34 <PRCMSysResetCauseGet+0x34>
  1a:	f64f 4068 	movw	r0, #64616	; 0xfc68
  1e:	f2c4 4002 	movt	r0, #17410	; 0x4402
  22:	f7ff fffe 	bl	0 <PRCMSysResetCauseGet>
  26:	4603      	mov	r3, r0
  28:	f003 0301 	and.w	r3, r3, #1
  2c:	2b00      	cmp	r3, #0
  2e:	d001      	beq.n	34 <PRCMSysResetCauseGet+0x34>
  30:	2307      	movs	r3, #7
  32:	607b      	str	r3, [r7, #4]
  34:	687b      	ldr	r3, [r7, #4]
  36:	4618      	mov	r0, r3
  38:	3708      	adds	r7, #8
  3a:	46bd      	mov	sp, r7
  3c:	bd80      	pop	{r7, pc}
  3e:	bf00      	nop

Disassembly of section .text.PRCMPeripheralClkEnable:

00000000 <PRCMPeripheralClkEnable>:
   0:	b480      	push	{r7}
   2:	b083      	sub	sp, #12
   4:	af00      	add	r7, sp, #0
   6:	6078      	str	r0, [r7, #4]
   8:	6039      	str	r1, [r7, #0]
   a:	687b      	ldr	r3, [r7, #4]
   c:	2bff      	cmp	r3, #255	; 0xff
   e:	d01a      	beq.n	46 <PRCMPeripheralClkEnable+0x46>
  10:	f240 0300 	movw	r3, #0
  14:	f2c0 0300 	movt	r3, #0
  18:	687a      	ldr	r2, [r7, #4]
  1a:	f853 3032 	ldr.w	r3, [r3, r2, lsl #3]
  1e:	f103 4388 	add.w	r3, r3, #1140850688	; 0x44000000
  22:	f503 3314 	add.w	r3, r3, #151552	; 0x25000
  26:	461a      	mov	r2, r3
  28:	f240 0300 	movw	r3, #0
  2c:	f2c0 0300 	movt	r3, #0
  30:	6879      	ldr	r1, [r7, #4]
  32:	f853 3031 	ldr.w	r3, [r3, r1, lsl #3]
  36:	f103 4388 	add.w	r3, r3, #1140850688	; 0x44000000
  3a:	f503 3314 	add.w	r3, r3, #151552	; 0x25000
  3e:	6819      	ldr	r1, [r3, #0]
  40:	683b      	ldr	r3, [r7, #0]
  42:	430b      	orrs	r3, r1
  44:	6013      	str	r3, [r2, #0]
  46:	687b      	ldr	r3, [r7, #4]
  48:	2b00      	cmp	r3, #0
  4a:	d106      	bne.n	5a <PRCMPeripheralClkEnable+0x5a>
  4c:	f44f 43a0 	mov.w	r3, #20480	; 0x5000
  50:	f2c4 4302 	movt	r3, #17410	; 0x4402
  54:	f240 4204 	movw	r2, #1028	; 0x404
  58:	601a      	str	r2, [r3, #0]
  5a:	370c      	adds	r7, #12
  5c:	46bd      	mov	sp, r7
  5e:	f85d 7b04 	ldr.w	r7, [sp], #4
  62:	4770      	bx	lr

Disassembly of section .text.PRCMPeripheralClkDisable:

00000000 <PRCMPeripheralClkDisable>:
   0:	b480      	push	{r7}
   2:	b083      	sub	sp, #12
   4:	af00      	add	r7, sp, #0
   6:	6078      	str	r0, [r7, #4]
   8:	6039      	str	r1, [r7, #0]
   a:	f240 0300 	movw	r3, #0
   e:	f2c0 0300 	movt	r3, #0
  12:	687a      	ldr	r2, [r7, #4]
  14:	f853 3032 	ldr.w	r3, [r3, r2, lsl #3]
  18:	f103 4388 	add.w	r3, r3, #1140850688	; 0x44000000
  1c:	f503 3314 	add.w	r3, r3, #151552	; 0x25000
  20:	461a      	mov	r2, r3
  22:	f240 0300 	movw	r3, #0
  26:	f2c0 0300 	movt	r3, #0
  2a:	6879      	ldr	r1, [r7, #4]
  2c:	f853 3031 	ldr.w	r3, [r3, r1, lsl #3]
  30:	f103 4388 	add.w	r3, r3, #1140850688	; 0x44000000
  34:	f503 3314 	add.w	r3, r3, #151552	; 0x25000
  38:	6819      	ldr	r1, [r3, #0]
  3a:	683b      	ldr	r3, [r7, #0]
  3c:	43db      	mvns	r3, r3
  3e:	400b      	ands	r3, r1
  40:	6013      	str	r3, [r2, #0]
  42:	370c      	adds	r7, #12
  44:	46bd      	mov	sp, r7
  46:	f85d 7b04 	ldr.w	r7, [sp], #4
  4a:	4770      	bx	lr

Disassembly of section .text.PRCMPeripheralClockGet:

00000000 <PRCMPeripheralClockGet>:
   0:	b480      	push	{r7}
   2:	b087      	sub	sp, #28
   4:	af00      	add	r7, sp, #0
   6:	6078      	str	r0, [r7, #4]
   8:	687b      	ldr	r3, [r7, #4]
   a:	2b13      	cmp	r3, #19
   c:	bf14      	ite	ne
   e:	2300      	movne	r3, #0
  10:	2301      	moveq	r3, #1
  12:	b2da      	uxtb	r2, r3
  14:	687b      	ldr	r3, [r7, #4]
  16:	2b04      	cmp	r3, #4
  18:	bf14      	ite	ne
  1a:	2300      	movne	r3, #0
  1c:	2301      	moveq	r3, #1
  1e:	b2db      	uxtb	r3, r3
  20:	4313      	orrs	r3, r2
  22:	b2db      	uxtb	r3, r3
  24:	461a      	mov	r2, r3
  26:	687b      	ldr	r3, [r7, #4]
  28:	2b03      	cmp	r3, #3
  2a:	bf14      	ite	ne
  2c:	2300      	movne	r3, #0
  2e:	2301      	moveq	r3, #1
  30:	b2db      	uxtb	r3, r3
  32:	4313      	orrs	r3, r2
  34:	2b00      	cmp	r3, #0
  36:	d004      	beq.n	42 <PRCMPeripheralClockGet+0x42>
  38:	f44f 43b4 	mov.w	r3, #23040	; 0x5a00
  3c:	f2c0 2362 	movt	r3, #610	; 0x262
  40:	e038      	b.n	b4 <PRCMPeripheralClockGet+0xb4>
  42:	687b      	ldr	r3, [r7, #4]
  44:	2b00      	cmp	r3, #0
  46:	d110      	bne.n	6a <PRCMPeripheralClockGet+0x6a>
  48:	f44f 43a0 	mov.w	r3, #20480	; 0x5000
  4c:	f2c4 4302 	movt	r3, #17410	; 0x4402
  50:	681b      	ldr	r3, [r3, #0]
  52:	0a1b      	lsrs	r3, r3, #8
  54:	f003 0307 	and.w	r3, r3, #7
  58:	617b      	str	r3, [r7, #20]
  5a:	f44f 43a0 	mov.w	r3, #20480	; 0x5000
  5e:	f2c4 4302 	movt	r3, #17410	; 0x4402
  62:	681b      	ldr	r3, [r3, #0]
  64:	b2db      	uxtb	r3, r3
  66:	613b      	str	r3, [r7, #16]
  68:	e018      	b.n	9c <PRCMPeripheralClockGet+0x9c>
  6a:	687b      	ldr	r3, [r7, #4]
  6c:	2b02      	cmp	r3, #2
  6e:	d110      	bne.n	92 <PRCMPeripheralClockGet+0x92>
  70:	f245 0320 	movw	r3, #20512	; 0x5020
  74:	f2c4 4302 	movt	r3, #17410	; 0x4402
  78:	681b      	ldr	r3, [r3, #0]
  7a:	0a1b      	lsrs	r3, r3, #8
  7c:	f003 0307 	and.w	r3, r3, #7
  80:	617b      	str	r3, [r7, #20]
  82:	f245 0320 	movw	r3, #20512	; 0x5020
  86:	f2c4 4302 	movt	r3, #17410	; 0x4402
  8a:	681b      	ldr	r3, [r3, #0]
  8c:	b2db      	uxtb	r3, r3
  8e:	613b      	str	r3, [r7, #16]
  90:	e004      	b.n	9c <PRCMPeripheralClockGet+0x9c>
  92:	f44f 4334 	mov.w	r3, #46080	; 0xb400
  96:	f2c0 43c4 	movt	r3, #1220	; 0x4c4
  9a:	e00b      	b.n	b4 <PRCMPeripheralClockGet+0xb4>
  9c:	697a      	ldr	r2, [r7, #20]
  9e:	693b      	ldr	r3, [r7, #16]
  a0:	4413      	add	r3, r2
  a2:	1c9a      	adds	r2, r3, #2
  a4:	f44f 53e0 	mov.w	r3, #7168	; 0x1c00
  a8:	f6c0 634e 	movt	r3, #3662	; 0xe4e
  ac:	fbb3 f3f2 	udiv	r3, r3, r2
  b0:	60fb      	str	r3, [r7, #12]
  b2:	68fb      	ldr	r3, [r7, #12]
  b4:	4618      	mov	r0, r3
  b6:	371c      	adds	r7, #28
  b8:	46bd      	mov	sp, r7
  ba:	f85d 7b04 	ldr.w	r7, [sp], #4
  be:	4770      	bx	lr

Disassembly of section .text.PRCMPeripheralReset:

00000000 <PRCMPeripheralReset>:
   0:	b480      	push	{r7}
   2:	b085      	sub	sp, #20
   4:	af00      	add	r7, sp, #0
   6:	6078      	str	r0, [r7, #4]
   8:	687b      	ldr	r3, [r7, #4]
   a:	2b12      	cmp	r3, #18
   c:	d042      	beq.n	94 <PRCMPeripheralReset+0x94>
   e:	f240 0200 	movw	r2, #0
  12:	f2c0 0200 	movt	r2, #0
  16:	687b      	ldr	r3, [r7, #4]
  18:	00db      	lsls	r3, r3, #3
  1a:	4413      	add	r3, r2
  1c:	685b      	ldr	r3, [r3, #4]
  1e:	f103 4388 	add.w	r3, r3, #1140850688	; 0x44000000
  22:	f503 3314 	add.w	r3, r3, #151552	; 0x25000
  26:	4619      	mov	r1, r3
  28:	f240 0200 	movw	r2, #0
  2c:	f2c0 0200 	movt	r2, #0
  30:	687b      	ldr	r3, [r7, #4]
  32:	00db      	lsls	r3, r3, #3
  34:	4413      	add	r3, r2
  36:	685b      	ldr	r3, [r3, #4]
  38:	f103 4388 	add.w	r3, r3, #1140850688	; 0x44000000
  3c:	f503 3314 	add.w	r3, r3, #151552	; 0x25000
  40:	681b      	ldr	r3, [r3, #0]
  42:	f043 0301 	orr.w	r3, r3, #1
  46:	600b      	str	r3, [r1, #0]
  48:	2300      	movs	r3, #0
  4a:	60fb      	str	r3, [r7, #12]
  4c:	e002      	b.n	54 <PRCMPeripheralReset+0x54>
  4e:	68fb      	ldr	r3, [r7, #12]
  50:	3301      	adds	r3, #1
  52:	60fb      	str	r3, [r7, #12]
  54:	68fb      	ldr	r3, [r7, #12]
  56:	2b0f      	cmp	r3, #15
  58:	d9f9      	bls.n	4e <PRCMPeripheralReset+0x4e>
  5a:	f240 0200 	movw	r2, #0
  5e:	f2c0 0200 	movt	r2, #0
  62:	687b      	ldr	r3, [r7, #4]
  64:	00db      	lsls	r3, r3, #3
  66:	4413      	add	r3, r2
  68:	685b      	ldr	r3, [r3, #4]
  6a:	f103 4388 	add.w	r3, r3, #1140850688	; 0x44000000
  6e:	f503 3314 	add.w	r3, r3, #151552	; 0x25000
  72:	4619      	mov	r1, r3
  74:	f240 0200 	movw	r2, #0
  78:	f2c0 0200 	movt	r2, #0
  7c:	687b      	ldr	r3, [r7, #4]
  7e:	00db      	lsls	r3, r3, #3
  80:	4413      	add	r3, r2
  82:	685b      	ldr	r3, [r3, #4]
  84:	f103 4388 	add.w	r3, r3, #1140850688	; 0x44000000
  88:	f503 3314 	add.w	r3, r3, #151552	; 0x25000
  8c:	681b      	ldr	r3, [r3, #0]
  8e:	f023 0301 	bic.w	r3, r3, #1
  92:	600b      	str	r3, [r1, #0]
  94:	3714      	adds	r7, #20
  96:	46bd      	mov	sp, r7
  98:	f85d 7b04 	ldr.w	r7, [sp], #4
  9c:	4770      	bx	lr
  9e:	bf00      	nop

Disassembly of section .text.PRCMPeripheralStatusGet:

00000000 <PRCMPeripheralStatusGet>:
   0:	b480      	push	{r7}
   2:	b085      	sub	sp, #20
   4:	af00      	add	r7, sp, #0
   6:	6078      	str	r0, [r7, #4]
   8:	f240 0200 	movw	r2, #0
   c:	f2c0 0200 	movt	r2, #0
  10:	687b      	ldr	r3, [r7, #4]
  12:	00db      	lsls	r3, r3, #3
  14:	4413      	add	r3, r2
  16:	685b      	ldr	r3, [r3, #4]
  18:	f103 4388 	add.w	r3, r3, #1140850688	; 0x44000000
  1c:	f503 3314 	add.w	r3, r3, #151552	; 0x25000
  20:	681b      	ldr	r3, [r3, #0]
  22:	60fb      	str	r3, [r7, #12]
  24:	68fb      	ldr	r3, [r7, #12]
  26:	f003 0302 	and.w	r3, r3, #2
  2a:	60fb      	str	r3, [r7, #12]
  2c:	68fb      	ldr	r3, [r7, #12]
  2e:	2b00      	cmp	r3, #0
  30:	d001      	beq.n	36 <PRCMPeripheralStatusGet+0x36>
  32:	2301      	movs	r3, #1
  34:	e000      	b.n	38 <PRCMPeripheralStatusGet+0x38>
  36:	2300      	movs	r3, #0
  38:	4618      	mov	r0, r3
  3a:	3714      	adds	r7, #20
  3c:	46bd      	mov	sp, r7
  3e:	f85d 7b04 	ldr.w	r7, [sp], #4
  42:	4770      	bx	lr

Disassembly of section .text.PRCMI2SClockFreqSet:

00000000 <PRCMI2SClockFreqSet>:
   0:	b5b0      	push	{r4, r5, r7, lr}
   2:	b086      	sub	sp, #24
   4:	af00      	add	r7, sp, #0
   6:	6078      	str	r0, [r7, #4]
   8:	687b      	ldr	r3, [r7, #4]
   a:	461a      	mov	r2, r3
   c:	f04f 0300 	mov.w	r3, #0
  10:	f04f 50e0 	mov.w	r0, #469762048	; 0x1c000000
  14:	f640 614e 	movw	r1, #3662	; 0xe4e
  18:	f7ff fffe 	bl	0 <__aeabi_uldivmod>
  1c:	4602      	mov	r2, r0
  1e:	460b      	mov	r3, r1
  20:	e9c7 2304 	strd	r2, r3, [r7, #16]
  24:	e9d7 2304 	ldrd	r2, r3, [r7, #16]
  28:	0c14      	lsrs	r4, r2, #16
  2a:	ea44 4403 	orr.w	r4, r4, r3, lsl #16
  2e:	0c1d      	lsrs	r5, r3, #16
  30:	4623      	mov	r3, r4
  32:	81fb      	strh	r3, [r7, #14]
  34:	693b      	ldr	r3, [r7, #16]
  36:	81bb      	strh	r3, [r7, #12]
  38:	f245 03b0 	movw	r3, #20656	; 0x50b0
  3c:	f2c4 4302 	movt	r3, #17410	; 0x4402
  40:	89fa      	ldrh	r2, [r7, #14]
  42:	f3c2 0209 	ubfx	r2, r2, #0, #10
  46:	0411      	lsls	r1, r2, #16
  48:	89ba      	ldrh	r2, [r7, #12]
  4a:	430a      	orrs	r2, r1
  4c:	601a      	str	r2, [r3, #0]
  4e:	3718      	adds	r7, #24
  50:	46bd      	mov	sp, r7
  52:	bdb0      	pop	{r4, r5, r7, pc}

Disassembly of section .text.PRCMLPDSRestoreInfoSet:

00000000 <PRCMLPDSRestoreInfoSet>:
   0:	b480      	push	{r7}
   2:	b083      	sub	sp, #12
   4:	af00      	add	r7, sp, #0
   6:	6078      	str	r0, [r7, #4]
   8:	6039      	str	r1, [r7, #0]
   a:	f24e 138c 	movw	r3, #57740	; 0xe18c
   e:	f2c4 4302 	movt	r3, #17410	; 0x4402
  12:	687a      	ldr	r2, [r7, #4]
  14:	601a      	str	r2, [r3, #0]
  16:	f24e 1390 	movw	r3, #57744	; 0xe190
  1a:	f2c4 4302 	movt	r3, #17410	; 0x4402
  1e:	683a      	ldr	r2, [r7, #0]
  20:	601a      	str	r2, [r3, #0]
  22:	370c      	adds	r7, #12
  24:	46bd      	mov	sp, r7
  26:	f85d 7b04 	ldr.w	r7, [sp], #4
  2a:	4770      	bx	lr

Disassembly of section .text.PRCMLPDSEnter:

00000000 <PRCMLPDSEnter>:
   0:	b580      	push	{r7, lr}
   2:	b082      	sub	sp, #8
   4:	af00      	add	r7, sp, #0
   6:	2300      	movs	r3, #0
   8:	681b      	ldr	r3, [r3, #0]
   a:	f5b3 1f88 	cmp.w	r3, #1114112	; 0x110000
   e:	d101      	bne.n	6 <FlashDisable+0x6>
  10:	f7ff fffe 	bl	0 <FlashDisable>
  14:	f24e 1368 	movw	r3, #57704	; 0xe168
  18:	f2c4 4302 	movt	r3, #17410	; 0x4402
  1c:	f24e 1268 	movw	r2, #57704	; 0xe168
  20:	f2c4 4202 	movt	r2, #17410	; 0x4402
  24:	6812      	ldr	r2, [r2, #0]
  26:	f442 7200 	orr.w	r2, r2, #512	; 0x200
  2a:	601a      	str	r2, [r3, #0]
  2c:	f24f 03c0 	movw	r3, #61632	; 0xf0c0
  30:	f2c4 4302 	movt	r3, #17410	; 0x4402
  34:	2201      	movs	r2, #1
  36:	601a      	str	r2, [r3, #0]
  38:	f245 03e4 	movw	r3, #20708	; 0x50e4
  3c:	f2c4 4302 	movt	r3, #17410	; 0x4402
  40:	2201      	movs	r2, #1
  42:	601a      	str	r2, [r3, #0]
  44:	bf00      	nop
  46:	bf00      	nop
  48:	bf00      	nop
  4a:	bf00      	nop
  4c:	3708      	adds	r7, #8
  4e:	46bd      	mov	sp, r7
  50:	bd80      	pop	{r7, pc}
  52:	bf00      	nop

Disassembly of section .text.PRCMLPDSWakeupSourceEnable:

00000000 <PRCMLPDSWakeupSourceEnable>:
   0:	b480      	push	{r7}
   2:	b085      	sub	sp, #20
   4:	af00      	add	r7, sp, #0
   6:	6078      	str	r0, [r7, #4]
   8:	f24d 0304 	movw	r3, #53252	; 0xd004
   c:	f2c4 4302 	movt	r3, #17410	; 0x4402
  10:	681b      	ldr	r3, [r3, #0]
  12:	60fb      	str	r3, [r7, #12]
  14:	68fa      	ldr	r2, [r7, #12]
  16:	687b      	ldr	r3, [r7, #4]
  18:	4313      	orrs	r3, r2
  1a:	f003 0391 	and.w	r3, r3, #145	; 0x91
  1e:	60fb      	str	r3, [r7, #12]
  20:	f24d 0304 	movw	r3, #53252	; 0xd004
  24:	f2c4 4302 	movt	r3, #17410	; 0x4402
  28:	68fa      	ldr	r2, [r7, #12]
  2a:	601a      	str	r2, [r3, #0]
  2c:	3714      	adds	r7, #20
  2e:	46bd      	mov	sp, r7
  30:	f85d 7b04 	ldr.w	r7, [sp], #4
  34:	4770      	bx	lr
  36:	bf00      	nop

Disassembly of section .text.PRCMLPDSWakeupSourceDisable:

00000000 <PRCMLPDSWakeupSourceDisable>:
   0:	b480      	push	{r7}
   2:	b083      	sub	sp, #12
   4:	af00      	add	r7, sp, #0
   6:	6078      	str	r0, [r7, #4]
   8:	f24d 0304 	movw	r3, #53252	; 0xd004
   c:	f2c4 4302 	movt	r3, #17410	; 0x4402
  10:	f24d 0204 	movw	r2, #53252	; 0xd004
  14:	f2c4 4202 	movt	r2, #17410	; 0x4402
  18:	6811      	ldr	r1, [r2, #0]
  1a:	687a      	ldr	r2, [r7, #4]
  1c:	43d2      	mvns	r2, r2
  1e:	400a      	ands	r2, r1
  20:	601a      	str	r2, [r3, #0]
  22:	370c      	adds	r7, #12
  24:	46bd      	mov	sp, r7
  26:	f85d 7b04 	ldr.w	r7, [sp], #4
  2a:	4770      	bx	lr

Disassembly of section .text.PRCMLPDSWakeupCauseGet:

00000000 <PRCMLPDSWakeupCauseGet>:
   0:	b480      	push	{r7}
   2:	af00      	add	r7, sp, #0
   4:	f24d 0308 	movw	r3, #53256	; 0xd008
   8:	f2c4 4302 	movt	r3, #17410	; 0x4402
   c:	681b      	ldr	r3, [r3, #0]
   e:	4618      	mov	r0, r3
  10:	46bd      	mov	sp, r7
  12:	f85d 7b04 	ldr.w	r7, [sp], #4
  16:	4770      	bx	lr

Disassembly of section .text.PRCMLPDSIntervalSet:

00000000 <PRCMLPDSIntervalSet>:
   0:	b480      	push	{r7}
   2:	b083      	sub	sp, #12
   4:	af00      	add	r7, sp, #0
   6:	6078      	str	r0, [r7, #4]
   8:	687b      	ldr	r3, [r7, #4]
   a:	2b14      	cmp	r3, #20
   c:	d801      	bhi.n	12 <PRCMLPDSIntervalSet+0x12>
   e:	2315      	movs	r3, #21
  10:	607b      	str	r3, [r7, #4]
  12:	f24d 0320 	movw	r3, #53280	; 0xd020
  16:	f2c4 4302 	movt	r3, #17410	; 0x4402
  1a:	687a      	ldr	r2, [r7, #4]
  1c:	601a      	str	r2, [r3, #0]
  1e:	f24d 0310 	movw	r3, #53264	; 0xd010
  22:	f2c4 4302 	movt	r3, #17410	; 0x4402
  26:	687a      	ldr	r2, [r7, #4]
  28:	3a14      	subs	r2, #20
  2a:	601a      	str	r2, [r3, #0]
  2c:	370c      	adds	r7, #12
  2e:	46bd      	mov	sp, r7
  30:	f85d 7b04 	ldr.w	r7, [sp], #4
  34:	4770      	bx	lr
  36:	bf00      	nop

Disassembly of section .text.PRCMLPDSWakeUpGPIOSelect:

00000000 <PRCMLPDSWakeUpGPIOSelect>:
   0:	b580      	push	{r7, lr}
   2:	b082      	sub	sp, #8
   4:	af00      	add	r7, sp, #0
   6:	6078      	str	r0, [r7, #4]
   8:	6039      	str	r1, [r7, #0]
   a:	f64f 406c 	movw	r0, #64620	; 0xfc6c
   e:	f2c4 4002 	movt	r0, #17410	; 0x4402
  12:	6879      	ldr	r1, [r7, #4]
  14:	f7ff fffe 	bl	0 <PRCMLPDSWakeUpGPIOSelect>
  18:	f24d 1310 	movw	r3, #53520	; 0xd110
  1c:	f2c4 4302 	movt	r3, #17410	; 0x4402
  20:	683a      	ldr	r2, [r7, #0]
  22:	f002 0203 	and.w	r2, r2, #3
  26:	601a      	str	r2, [r3, #0]
  28:	3708      	adds	r7, #8
  2a:	46bd      	mov	sp, r7
  2c:	bd80      	pop	{r7, pc}
  2e:	bf00      	nop

Disassembly of section .text.PRCMSleepEnter:

00000000 <PRCMSleepEnter>:
   0:	b580      	push	{r7, lr}
   2:	af00      	add	r7, sp, #0
   4:	f7ff fffe 	bl	0 <CPUwfi>
   8:	bd80      	pop	{r7, pc}
   a:	bf00      	nop

Disassembly of section .text.PRCMDeepSleepEnter:

00000000 <PRCMDeepSleepEnter>:
   0:	b580      	push	{r7, lr}
   2:	af00      	add	r7, sp, #0
   4:	f24f 03c0 	movw	r3, #61632	; 0xf0c0
   8:	f2c4 4302 	movt	r3, #17410	; 0x4402
   c:	2201      	movs	r2, #1
   e:	601a      	str	r2, [r3, #0]
  10:	f64e 5310 	movw	r3, #60688	; 0xed10
  14:	f2ce 0300 	movt	r3, #57344	; 0xe000
  18:	f64e 5210 	movw	r2, #60688	; 0xed10
  1c:	f2ce 0200 	movt	r2, #57344	; 0xe000
  20:	6812      	ldr	r2, [r2, #0]
  22:	f042 0204 	orr.w	r2, r2, #4
  26:	601a      	str	r2, [r3, #0]
  28:	f7ff fffe 	bl	0 <CPUwfi>
  2c:	f64e 5310 	movw	r3, #60688	; 0xed10
  30:	f2ce 0300 	movt	r3, #57344	; 0xe000
  34:	f64e 5210 	movw	r2, #60688	; 0xed10
  38:	f2ce 0200 	movt	r2, #57344	; 0xe000
  3c:	6812      	ldr	r2, [r2, #0]
  3e:	f022 0204 	bic.w	r2, r2, #4
  42:	601a      	str	r2, [r3, #0]
  44:	bd80      	pop	{r7, pc}
  46:	bf00      	nop

Disassembly of section .text.PRCMSRAMRetentionEnable:

00000000 <PRCMSRAMRetentionEnable>:
   0:	b480      	push	{r7}
   2:	b083      	sub	sp, #12
   4:	af00      	add	r7, sp, #0
   6:	6078      	str	r0, [r7, #4]
   8:	6039      	str	r1, [r7, #0]
   a:	683b      	ldr	r3, [r7, #0]
   c:	f003 0301 	and.w	r3, r3, #1
  10:	2b00      	cmp	r3, #0
  12:	d007      	beq.n	24 <PRCMSRAMRetentionEnable+0x24>
  14:	f24d 0318 	movw	r3, #53272	; 0xd018
  18:	f2c4 4302 	movt	r3, #17410	; 0x4402
  1c:	687a      	ldr	r2, [r7, #4]
  1e:	f002 020f 	and.w	r2, r2, #15
  22:	601a      	str	r2, [r3, #0]
  24:	683b      	ldr	r3, [r7, #0]
  26:	f003 0302 	and.w	r3, r3, #2
  2a:	2b00      	cmp	r3, #0
  2c:	d007      	beq.n	3e <PRCMSRAMRetentionEnable+0x3e>
  2e:	f24d 031c 	movw	r3, #53276	; 0xd01c
  32:	f2c4 4302 	movt	r3, #17410	; 0x4402
  36:	687a      	ldr	r2, [r7, #4]
  38:	f002 020f 	and.w	r2, r2, #15
  3c:	601a      	str	r2, [r3, #0]
  3e:	370c      	adds	r7, #12
  40:	46bd      	mov	sp, r7
  42:	f85d 7b04 	ldr.w	r7, [sp], #4
  46:	4770      	bx	lr

Disassembly of section .text.PRCMSRAMRetentionDisable:

00000000 <PRCMSRAMRetentionDisable>:
   0:	b480      	push	{r7}
   2:	b083      	sub	sp, #12
   4:	af00      	add	r7, sp, #0
   6:	6078      	str	r0, [r7, #4]
   8:	6039      	str	r1, [r7, #0]
   a:	683b      	ldr	r3, [r7, #0]
   c:	f003 0301 	and.w	r3, r3, #1
  10:	2b00      	cmp	r3, #0
  12:	d00e      	beq.n	32 <PRCMSRAMRetentionDisable+0x32>
  14:	f24d 0318 	movw	r3, #53272	; 0xd018
  18:	f2c4 4302 	movt	r3, #17410	; 0x4402
  1c:	f24d 0218 	movw	r2, #53272	; 0xd018
  20:	f2c4 4202 	movt	r2, #17410	; 0x4402
  24:	6811      	ldr	r1, [r2, #0]
  26:	687a      	ldr	r2, [r7, #4]
  28:	f002 020f 	and.w	r2, r2, #15
  2c:	43d2      	mvns	r2, r2
  2e:	400a      	ands	r2, r1
  30:	601a      	str	r2, [r3, #0]
  32:	683b      	ldr	r3, [r7, #0]
  34:	f003 0302 	and.w	r3, r3, #2
  38:	2b00      	cmp	r3, #0
  3a:	d00e      	beq.n	5a <PRCMSRAMRetentionDisable+0x5a>
  3c:	f24d 031c 	movw	r3, #53276	; 0xd01c
  40:	f2c4 4302 	movt	r3, #17410	; 0x4402
  44:	f24d 021c 	movw	r2, #53276	; 0xd01c
  48:	f2c4 4202 	movt	r2, #17410	; 0x4402
  4c:	6811      	ldr	r1, [r2, #0]
  4e:	687a      	ldr	r2, [r7, #4]
  50:	f002 020f 	and.w	r2, r2, #15
  54:	43d2      	mvns	r2, r2
  56:	400a      	ands	r2, r1
  58:	601a      	str	r2, [r3, #0]
  5a:	370c      	adds	r7, #12
  5c:	46bd      	mov	sp, r7
  5e:	f85d 7b04 	ldr.w	r7, [sp], #4
  62:	4770      	bx	lr

Disassembly of section .text.PRCMHibernateWakeupSourceEnable:

00000000 <PRCMHibernateWakeupSourceEnable>:
   0:	b580      	push	{r7, lr}
   2:	b084      	sub	sp, #16
   4:	af00      	add	r7, sp, #0
   6:	6078      	str	r0, [r7, #4]
   8:	f64f 0018 	movw	r0, #63512	; 0xf818
   c:	f2c4 4002 	movt	r0, #17410	; 0x4402
  10:	f7ff fffe 	bl	0 <PRCMHibernateWakeupSourceEnable>
  14:	60f8      	str	r0, [r7, #12]
  16:	687b      	ldr	r3, [r7, #4]
  18:	f003 0301 	and.w	r3, r3, #1
  1c:	68fa      	ldr	r2, [r7, #12]
  1e:	4313      	orrs	r3, r2
  20:	60fb      	str	r3, [r7, #12]
  22:	f64f 0018 	movw	r0, #63512	; 0xf818
  26:	f2c4 4002 	movt	r0, #17410	; 0x4402
